
/root/Desktop/aes-web/SaveStorage/ta/out/f4e750bb-1437-4fbf-8785-8d3580c34994.elf：     文件格式 elf64-littleaarch64
/root/Desktop/aes-web/SaveStorage/ta/out/f4e750bb-1437-4fbf-8785-8d3580c34994.elf
体系结构：aarch64， 标志 0x00000150：
HAS_SYMS, DYNAMIC, D_PAGED
起始地址 0x00000000000007bc

程序头：
    LOAD off    0x0000000000001000 vaddr 0x0000000000000000 paddr 0x0000000000000000 align 2**12
         filesz 0x000000000001f320 memsz 0x000000000001f320 flags r-x
    LOAD off    0x0000000000021000 vaddr 0x0000000000020000 paddr 0x0000000000020000 align 2**12
         filesz 0x00000000000005bc memsz 0x000000000000be68 flags rw-
 DYNAMIC off    0x0000000000021000 vaddr 0x0000000000020000 paddr 0x0000000000020000 align 2**3
         filesz 0x0000000000000110 memsz 0x0000000000000110 flags rw-
   STACK off    0x0000000000000000 vaddr 0x0000000000000000 paddr 0x0000000000000000 align 2**4
         filesz 0x0000000000000000 memsz 0x0000000000000000 flags rw-

动态节：
  HASH                 0x000000000001efa8
  GNU_HASH             0x000000000001ee70
  STRTAB               0x000000000001ef70
  SYMTAB               0x000000000001eec8
  STRSZ                0x0000000000000036
  SYMENT               0x0000000000000018
  DEBUG                0x0000000000000000
  RELA                 0x000000000001efd8
  RELASZ               0x0000000000000558
  RELAENT              0x0000000000000018
  FLAGS_1              0x0000000008000000
  RELACOUNT            0x0000000000000023
私有标志 = 0x0：

节：
Idx Name          Size      VMA               LMA               File off  Algn
  0 .text         0001a3e8  0000000000000000  0000000000000000  00001000  2**2
                  CONTENTS, ALLOC, LOAD, READONLY, CODE
  1 .eh_frame     00003498  000000000001a3e8  000000000001a3e8  0001b3e8  2**3
                  CONTENTS, ALLOC, LOAD, READONLY, DATA
  2 .rodata       000015ee  000000000001d880  000000000001d880  0001e880  2**3
                  CONTENTS, ALLOC, LOAD, READONLY, DATA
  3 .gnu.hash     00000034  000000000001ee70  000000000001ee70  0001fe70  2**3
                  CONTENTS, ALLOC, LOAD, READONLY, DATA
  4 .ta_head      00000020  000000000001eea8  000000000001eea8  0001fea8  2**3
                  CONTENTS, ALLOC, LOAD, READONLY, DATA
  5 .dynsym       000000a8  000000000001eec8  000000000001eec8  0001fec8  2**3
                  CONTENTS, ALLOC, LOAD, READONLY, DATA
  6 .dynstr       00000036  000000000001ef70  000000000001ef70  0001ff70  2**0
                  CONTENTS, ALLOC, LOAD, READONLY, DATA
  7 .hash         00000030  000000000001efa8  000000000001efa8  0001ffa8  2**3
                  CONTENTS, ALLOC, LOAD, READONLY, DATA
  8 .rela.dyn     00000348  000000000001efd8  000000000001efd8  0001ffd8  2**3
                  CONTENTS, ALLOC, LOAD, READONLY, DATA
  9 .dynamic      00000110  0000000000020000  0000000000020000  00021000  2**3
                  CONTENTS, ALLOC, LOAD, DATA
 10 .got          000000d0  0000000000020110  0000000000020110  00021110  2**3
                  CONTENTS, ALLOC, LOAD, DATA
 11 .rela.got     00000210  00000000000201e0  00000000000201e0  000211e0  2**3
                  CONTENTS, ALLOC, LOAD, READONLY, DATA
 12 .data         000001cc  00000000000203f0  00000000000203f0  000213f0  2**3
                  CONTENTS, ALLOC, LOAD, DATA
 13 .bss          0000b8a8  00000000000205c0  00000000000205c0  000215bc  2**3
                  ALLOC
 14 .debug_info   00010ca8  0000000000000000  0000000000000000  000215bc  2**0
                  CONTENTS, READONLY, DEBUGGING, OCTETS
 15 .debug_abbrev 00003111  0000000000000000  0000000000000000  00032264  2**0
                  CONTENTS, READONLY, DEBUGGING, OCTETS
 16 .debug_aranges 000009e0  0000000000000000  0000000000000000  00035380  2**4
                  CONTENTS, READONLY, DEBUGGING, OCTETS
 17 .debug_macro  0001ae4c  0000000000000000  0000000000000000  00035d60  2**0
                  CONTENTS, READONLY, DEBUGGING, OCTETS
 18 .debug_line   0000ba07  0000000000000000  0000000000000000  00050bac  2**0
                  CONTENTS, READONLY, DEBUGGING, OCTETS
 19 .debug_str    0001c6a6  0000000000000000  0000000000000000  0005c5b3  2**0
                  CONTENTS, READONLY, DEBUGGING, OCTETS
 20 .debug_line_str 00000258  0000000000000000  0000000000000000  00078c59  2**0
                  CONTENTS, READONLY, DEBUGGING, OCTETS
 21 .comment      00000088  0000000000000000  0000000000000000  00078eb1  2**0
                  CONTENTS, READONLY
 22 .debug_ranges 00000410  0000000000000000  0000000000000000  00078f40  2**4
                  CONTENTS, READONLY, DEBUGGING, OCTETS
SYMBOL TABLE:
0000000000000000 l    d  .text	0000000000000000 .text
000000000001a3e8 l    d  .eh_frame	0000000000000000 .eh_frame
000000000001d880 l    d  .rodata	0000000000000000 .rodata
000000000001ee70 l    d  .gnu.hash	0000000000000000 .gnu.hash
000000000001eea8 l    d  .ta_head	0000000000000000 .ta_head
000000000001eec8 l    d  .dynsym	0000000000000000 .dynsym
000000000001ef70 l    d  .dynstr	0000000000000000 .dynstr
000000000001efa8 l    d  .hash	0000000000000000 .hash
000000000001efd8 l    d  .rela.dyn	0000000000000000 .rela.dyn
0000000000020000 l    d  .dynamic	0000000000000000 .dynamic
0000000000020110 l    d  .got	0000000000000000 .got
00000000000201e0 l    d  .rela.got	0000000000000000 .rela.got
00000000000203f0 l    d  .data	0000000000000000 .data
00000000000205c0 l    d  .bss	0000000000000000 .bss
0000000000000000 l    d  .debug_info	0000000000000000 .debug_info
0000000000000000 l    d  .debug_abbrev	0000000000000000 .debug_abbrev
0000000000000000 l    d  .debug_aranges	0000000000000000 .debug_aranges
0000000000000000 l    d  .debug_macro	0000000000000000 .debug_macro
0000000000000000 l    d  .debug_line	0000000000000000 .debug_line
0000000000000000 l    d  .debug_str	0000000000000000 .debug_str
0000000000000000 l    d  .debug_line_str	0000000000000000 .debug_line_str
0000000000000000 l    d  .comment	0000000000000000 .comment
0000000000000000 l    d  .debug_ranges	0000000000000000 .debug_ranges
0000000000000000 l    df *ABS*	0000000000000000 secure_storage_ta.c
0000000000000000 l     F .text	000000000000011c delete_object
000000000000011c l     F .text	00000000000001d0 create_raw_object
00000000000002ec l     F .text	000000000000023c read_raw_object
0000000000000528 l     F .text	0000000000000184 get_object_size
000000000001d8a8 l     O .rodata	0000000000000022 __func__.0
0000000000000000 l    df *ABS*	0000000000000000 user_ta_header.c
000000000001d8e8 l     O .rodata	0000000000000001 __compound_literal.0
000000000001d8e9 l     O .rodata	0000000000000001 __compound_literal.1
000000000001d8ea l     O .rodata	0000000000000001 __compound_literal.2
000000000001d8ec l     O .rodata	0000000000000004 __compound_literal.3
000000000001d8f0 l     O .rodata	0000000000000004 __compound_literal.4
000000000001d8f4 l     O .rodata	0000000000000004 __compound_literal.5
000000000001d8f8 l     O .rodata	0000000000000001 __compound_literal.6
000000000001d8fc l     O .rodata	0000000000000004 __compound_literal.7
00000000000285c0 l     O .bss	0000000000000001 stack_canary_inited.0
0000000000000000 l    df *ABS*	0000000000000000 stack_check.c
0000000000000000 l    df *ABS*	0000000000000000 trace.c
000000000000091c l     F .text	0000000000000064 trace_level_to_string
000000000001dac8 l     O .rodata	0000000000000005 lvl_strs.0
0000000000000980 l     F .text	0000000000000074 print_thread_id
00000000000009f4 l     F .text	0000000000000018 print_core_id
0000000000000a0c l     F .text	0000000000000018 print_guest_id
0000000000000000 l    df *ABS*	0000000000000000 snprintk.c
000000000001dad0 l     O .rodata	0000000000000011 hexdigits
000000000001dae8 l     O .rodata	0000000000000011 HEXDIGITS
00000000000012b8 l     F .text	0000000000001c4c kprintf
00000000000011d4 l     F .text	00000000000000e4 uuid2str
0000000000000000 l    df *ABS*	0000000000000000 memchr.c
0000000000000000 l    df *ABS*	0000000000000000 strlen.c
0000000000000000 l    df *ABS*	0000000000000000 trace_ext.c
0000000000000000 l    df *ABS*	0000000000000000 tee_api.c
00000000000285d0 l     O .bss	0000000000000008 tee_api_instance_data
00000000000033a4 l     F .text	0000000000000148 copy_param
00000000000034ec l     F .text	000000000000014c copy_gp11_param
0000000000003638 l     F .text	000000000000035c map_tmp_param
0000000000003994 l     F .text	00000000000001a0 update_out_param
0000000000003b34 l     F .text	00000000000001a4 update_out_gp11_param
0000000000003cd8 l     F .text	00000000000000a0 bufs_intersect
0000000000003d78 l     F .text	0000000000000114 check_mem_access_rights_params
0000000000003e8c l     F .text	0000000000000064 buf_overlaps_no_share_heap
0000000000003ef0 l     F .text	0000000000000114 check_invoke_param
000000000001dcf0 l     O .rodata	000000000000000b __func__.0
0000000000004e68 l     F .text	0000000000000024 addr_is_in_no_share_heap
0000000000000000 l    df *ABS*	0000000000000000 tee_api_objects.c
0000000000000000 l    df *ABS*	0000000000000000 tee_api_panic.c
0000000000007928 l     F .text	0000000000000030 check_res
0000000000007958 l     F .text	0000000000000054 check_access
0000000000000000 l    df *ABS*	0000000000000000 tee_system_pta.c
0000000000007c90 l     F .text	0000000000000024 reg_pair_to_64
0000000000007cb4 l     F .text	0000000000000018 high32_from_64
0000000000007ccc l     F .text	0000000000000014 low32_from_64
0000000000007ce0 l     F .text	0000000000000048 reg_pair_from_64
0000000000007d28 l     F .text	0000000000000090 invoke_system_pta
00000000000285d8 l     O .bss	0000000000000008 sess.3
000000000001ddd0 l     O .rodata	0000000000000010 uuid.2
000000000001dde0 l     O .rodata	000000000000000a __func__.1
000000000001ddf0 l     O .rodata	0000000000000017 __func__.0
0000000000000000 l    df *ABS*	0000000000000000 user_ta_entry.c
000000000000812c l     F .text	0000000000000014 memtag_init_ops
0000000000008140 l     F .text	0000000000000008 __utee_gprof_init
0000000000008148 l     F .text	0000000000000008 __utee_gprof_fini
0000000000020500 l     O .data	0000000000000010 ta_sessions
0000000000028640 l     O .bss	0000000000000001 init_done
0000000000020510 l     O .data	0000000000000010 __phdr_info_head
0000000000028648 l     O .bss	0000000000000008 _num_mod_init
0000000000008150 l     F .text	00000000000000e0 _init_iterate_phdr_cb
000000000001de60 l     O .rodata	0000000000000016 __func__.0
0000000000008230 l     F .text	0000000000000194 _get_fn_array
00000000000085c0 l     F .text	00000000000000d0 _fini_iterate_phdr_cb
00000000000086b4 l     F .text	0000000000000084 get_memtag_implementation
0000000000008738 l     F .text	00000000000000cc init_instance
0000000000008804 l     F .text	0000000000000020 uninit_instance
0000000000008824 l     F .text	0000000000000064 ta_header_save_params
0000000000008888 l     F .text	000000000000005c ta_header_get_session
00000000000088e4 l     F .text	00000000000000fc ta_header_add_session
00000000000089e0 l     F .text	0000000000000130 ta_header_remove_session
0000000000008b10 l     F .text	000000000000018c to_utee_params
0000000000008c9c l     F .text	0000000000000140 from_utee_params
0000000000008ddc l     F .text	0000000000000104 entry_open_session
0000000000008ee0 l     F .text	000000000000004c entry_close_session
0000000000008f2c l     F .text	00000000000000dc entry_invoke_command
0000000000000000 l    df *ABS*	0000000000000000 user_ta_entry_compat.c
00000000000090b4 l     F .text	000000000000012c to_gp11_param
00000000000091e0 l     F .text	000000000000012c from_gp11_param
0000000000000000 l    df *ABS*	0000000000000000 utee_syscalls_a64.o
0000000000000000 l    df *ABS*	0000000000000000 abort.c
0000000000000000 l    df *ABS*	0000000000000000 tee_api_arith_mpi.c
0000000000009770 l     F .text	000000000000003c api_panic
00000000000097ac l     F .text	000000000000003c mpi_panic
0000000000028650 l     O .bss	0000000000003800 data.18
000000000001df68 l     O .rodata	0000000000000012 __func__.17
000000000000984c l     F .text	00000000000000d8 copy_mpi_to_bigint
0000000000009924 l     F .text	00000000000000f8 get_mpi
000000000001df80 l     O .rodata	0000000000000008 __func__.16
000000000001df88 l     O .rodata	000000000000000f __func__.15
000000000001df98 l     O .rodata	000000000000001f __func__.14
000000000001dfb8 l     O .rodata	0000000000000019 __func__.13
000000000001dfd8 l     O .rodata	0000000000000015 __func__.12
000000000000a558 l     F .text	0000000000000180 bigint_binary
000000000001dff0 l     O .rodata	000000000000000e __func__.11
000000000000a6d8 l     F .text	000000000000020c bigint_binary_mod
000000000001e000 l     O .rodata	0000000000000012 __func__.10
000000000001e018 l     O .rodata	000000000000000e __func__.9
000000000001e028 l     O .rodata	000000000000000e __func__.8
000000000001e038 l     O .rodata	000000000000000e __func__.7
000000000001e048 l     O .rodata	0000000000000011 __func__.6
000000000001e060 l     O .rodata	0000000000000018 __func__.5
000000000000b194 l     F .text	000000000000002c mpi_is_odd
000000000000b1c0 l     F .text	000000000000003c mpi_is_even
000000000001e078 l     O .rodata	0000000000000011 __func__.4
000000000000b440 l     F .text	0000000000000824 mpi_egcd
000000000001e090 l     O .rodata	0000000000000009 __func__.3
000000000001e0a0 l     O .rodata	000000000000001d __func__.2
000000000000bf74 l     F .text	000000000000003c rng_read
000000000001e0c0 l     O .rodata	0000000000000019 __func__.1
000000000001e0e0 l     O .rodata	0000000000000015 __func__.0
0000000000000000 l    df *ABS*	0000000000000000 tee_api_property.c
000000000001e0f8 l     O .rodata	0000000000000004 __compound_literal.0
000000000001e0fc l     O .rodata	0000000000000004 __compound_literal.1
000000000001e100 l     O .rodata	0000000000000004 __compound_literal.2
000000000001e104 l     O .rodata	0000000000000004 __compound_literal.3
000000000000c40c l     F .text	00000000000000b0 propset_get
000000000000c4bc l     F .text	0000000000000254 propget_get_ext_prop
000000000000c710 l     F .text	0000000000000054 is_propset_pseudo_handle
000000000000c764 l     F .text	0000000000000294 propget_get_property
0000000000000000 l    df *ABS*	0000000000000000 tcb.c
000000000000da28 l     F .text	0000000000000024 write_tpidr_el0
000000000000da4c l     F .text	0000000000000030 _assert_trap
000000000002be50 l     O .bss	0000000000000008 _tcb
000000000002be58 l     O .bss	0000000000000008 _tls_size
000000000001e248 l     O .rodata	0000000000000010 __func__.1
000000000001e258 l     O .rodata	0000000000000010 __func__.0
0000000000000000 l    df *ABS*	0000000000000000 assert.c
0000000000000000 l    df *ABS*	0000000000000000 base64.c
000000000001e290 l     O .rodata	0000000000000041 base64_table
000000000000e32c l     F .text	0000000000000084 get_idx
0000000000000000 l    df *ABS*	0000000000000000 bignum.c
000000000000e6cc l     F .text	0000000000000030 mbedtls_mpi_zeroize
000000000000e6fc l     F .text	0000000000000040 mpi_init
000000000000ebbc l     F .text	0000000000000090 mbedtls_mpi_resize_clear
000000000000ee60 l     F .text	000000000000002c mpi_sint_abs
000000000000f1c4 l     F .text	00000000000000c8 mpi_get_digit
000000000000f5e0 l     F .text	0000000000000190 mpi_write_hlp
00000000000107cc l     F .text	000000000000012c add_sub_mpi
0000000000010e8c l     F .text	00000000000000d0 mbedtls_int_div_int
0000000000011b0c l     F .text	0000000000000034 mpi_montg_init
0000000000011b68 l     F .text	0000000000000070 mpi_montmul
0000000000011c18 l     F .text	0000000000000098 mpi_montred
0000000000011ce8 l     F .text	00000000000000a0 mpi_select
000000000001e2f0 l     O .rodata	00000000000002a0 small_prime
0000000000013348 l     F .text	000000000000011c mpi_check_small_factors
0000000000013464 l     F .text	0000000000000390 mpi_miller_rabin
000000000001e590 l     O .rodata	0000000000000024 gcd_pairs
0000000000000000 l    df *ABS*	0000000000000000 bignum_core.c
000000000001441c l     F .text	0000000000000044 mbedtls_bswap32
0000000000014574 l     F .text	0000000000000070 mpi_bigendian_to_host_c
00000000000145e4 l     F .text	0000000000000020 mpi_bigendian_to_host
0000000000015c7c l     F .text	0000000000000088 mbedtls_mpi_core_ct_uint_table_lookup
0000000000015f3c l     F .text	000000000000006c exp_mod_get_window_size
0000000000016020 l     F .text	000000000000011c exp_mod_precompute_window
0000000000000000 l    df *ABS*	0000000000000000 constant_time.c
0000000000016620 l     F .text	0000000000000060 mbedtls_ct_uchar_mask_of_range
00000000000166cc l     F .text	0000000000000024 mbedtls_ct_size_gt
00000000000167a0 l     F .text	0000000000000068 mbedtls_ct_cond_select_sign
0000000000016b1c l     F .text	000000000000013c mbedtls_ct_mem_move_to_left
0000000000000000 l    df *ABS*	0000000000000000 platform_util.c
00000000000174f0 l     F .text	0000000000000064 mbedtls_get_unaligned_uint32.localalias
0000000000017554 l     F .text	0000000000000030 mbedtls_put_unaligned_uint32.localalias
0000000000020580 l     O .data	0000000000000008 memset_func
0000000000000000 l    df *ABS*	0000000000000000 bget_malloc.c
000000000001774c l     F .text	0000000000000030 _assert_trap
000000000001777c l     F .text	000000000000002c memset_unchecked
00000000000177a8 l     F .text	000000000000002c memcpy_unchecked
00000000000177d4 l     F .text	00000000000000cc buf_get_pos
000000000001ed40 l     O .rodata	0000000000000005 __func__.7
000000000001ed48 l     O .rodata	0000000000000006 __func__.6
000000000001ed50 l     O .rodata	0000000000000006 __func__.5
000000000001ed58 l     O .rodata	0000000000000005 __func__.4
000000000001ed60 l     O .rodata	0000000000000006 __func__.3
000000000001854c l     F .text	0000000000000014 malloc_lock
0000000000018560 l     F .text	0000000000000018 malloc_unlock
0000000000020588 l     O .data	0000000000000030 malloc_ctx
0000000000018578 l     F .text	0000000000000018 print_oom
0000000000018590 l     F .text	000000000000006c bget_buf_size
000000000001ed68 l     O .rodata	000000000000000e __func__.2
00000000000185fc l     F .text	0000000000000034 maybe_tag_buf
0000000000018630 l     F .text	0000000000000028 maybe_untag_buf
0000000000018658 l     F .text	0000000000000014 strip_tag
000000000001866c l     F .text	0000000000000018 tag_asan_free
0000000000018684 l     F .text	000000000000006c raw_malloc_return_hook
00000000000186f0 l     F .text	0000000000000014 raw_malloc_validate_pools
0000000000018704 l     F .text	0000000000000034 bpool_foreach_iterator_init
0000000000018738 l     F .text	0000000000000128 bpool_foreach_pool
000000000001ed78 l     O .rodata	0000000000000013 __func__.1
0000000000018860 l     F .text	00000000000000fc bpool_foreach
0000000000018ee8 l     F .text	0000000000000050 free_helper
0000000000018f94 l     F .text	0000000000000034 realloc_unlocked
00000000000190c4 l     F .text	0000000000000030 get_payload_start_size
000000000001913c l     F .text	0000000000000048 gen_malloc_add_pool
0000000000019184 l     F .text	0000000000000050 gen_malloc_buffer_is_within_alloced
00000000000191d4 l     F .text	0000000000000050 gen_malloc_buffer_overlaps_heap
000000000001ed90 l     O .rodata	0000000000000014 __func__.0
0000000000000000 l    df *ABS*	0000000000000000 snprintf.c
0000000000000000 l    df *ABS*	0000000000000000 memcpy.c
0000000000000000 l    df *ABS*	0000000000000000 memmove.c
0000000000000000 l    df *ABS*	0000000000000000 memset.c
0000000000000000 l    df *ABS*	0000000000000000 strcmp.c
0000000000000000 l    df *ABS*	0000000000000000 strlcpy.c
0000000000000000 l    df *ABS*	0000000000000000 mempool.c
0000000000019f88 l     F .text	0000000000000030 _assert_trap
0000000000019fb8 l     F .text	00000000000000cc init_mpool
000000000001ee38 l     O .rodata	000000000000000b __func__.2
000000000001a084 l     F .text	0000000000000014 get_pool
000000000001a098 l     F .text	0000000000000014 put_pool
000000000001ee48 l     O .rodata	0000000000000013 __func__.1
000000000001ee60 l     O .rodata	000000000000000e __func__.0
0000000000000000 l    df *ABS*	0000000000000000 consttime_memcmp.c
0000000000000000 l    df *ABS*	0000000000000000 
0000000000020000 l     O *ABS*	0000000000000000 _DYNAMIC
0000000000020128 l     O *ABS*	0000000000000000 _GLOBAL_OFFSET_TABLE_
0000000000003328 g     F .text	000000000000007c putchar
0000000000009b98 g     F .text	0000000000000038 __GP11_TEE_BigIntConvertFromOctetString
0000000000005fa4 g     F .text	00000000000001d0 TEE_PopulateTransientObject
0000000000015024 g     F .text	000000000000010c mbedtls_mpi_core_add_if
000000000000c1a0 g     F .text	0000000000000034 TEE_BigIntConvertToFMM
000000000000aee0 g     F .text	0000000000000034 TEE_BigIntSquareMod
000000000000a058 g     F .text	000000000000021c TEE_BigIntShiftRight
000000000001926c g     F .text	00000000000001b8 raw_malloc_add_pool
0000000000007fc0 g     F .text	000000000000016c tee_invoke_supp_plugin
0000000000015d04 g     F .text	0000000000000108 mbedtls_mpi_core_fill_random
000000000000e850 g     F .text	0000000000000174 mbedtls_mpi_grow
000000000000d65c g     F .text	00000000000001d8 __GP11_TEE_GetPropertyName
0000000000004e8c g     F .text	0000000000000114 TEE_Realloc
0000000000014d30 g     F .text	00000000000001f8 mbedtls_mpi_core_shift_r
0000000000007c54 g     F .text	000000000000003c __utee_check_inout_annotation
0000000000018ac8 g     F .text	0000000000000058 raw_free
00000000000031c4 g     F .text	000000000000012c printf
000000000000a514 g     F .text	0000000000000044 TEE_BigIntAbs
0000000000006344 g     F .text	000000000000006c TEE_InitRefAttribute
00000000000094bc g     F .text	000000000000000c _utee_log
0000000000004374 g     F .text	00000000000001dc TEE_InvokeTACommand
0000000000006488 g     F .text	000000000000006c __GP11_TEE_InitValueAttribute
00000000000079ac g     F .text	0000000000000064 __utee_check_outbuf_annotation
0000000000014bd8 g     F .text	0000000000000158 mbedtls_mpi_core_write_be
000000000000e760 g     F .text	0000000000000040 mbedtls_mpi_init_mempool
000000000000963c g     F .text	000000000000000c _utee_cryp_random_number_generate
000000000000fc28 g     F .text	0000000000000040 mbedtls_mpi_write_binary
0000000000000ff8 g     F .text	0000000000000064 vsnprintk
00000000000109fc g     F .text	00000000000000a4 mbedtls_mpi_sub_int
00000000000199e8 g     F .text	000000000000020c memmove
000000000001970c g     F .text	00000000000000f8 snprintf
0000000000009fdc g     F .text	000000000000007c TEE_BigIntCmpS32
00000000000049e8 g     F .text	0000000000000030 __GP11_TEE_MemMove
00000000000204f8 g     O .data	0000000000000008 __stack_chk_guard
0000000000017170 g     F .text	00000000000002ec mbedtls_ct_rsaes_pkcs1_v15_unpadding
000000000000641c g     F .text	000000000000006c TEE_InitValueAttribute
000000000000e9c4 g     F .text	00000000000001f8 mbedtls_mpi_shrink
0000000000004aa8 g     F .text	0000000000000034 __GP11_TEE_MemFill
000000000000a8e4 g     F .text	0000000000000038 TEE_BigIntAdd
00000000000095dc g     F .text	000000000000000c _utee_cryp_obj_restrict_usage
00000000000063b0 g     F .text	000000000000006c __GP11_TEE_InitRefAttribute
000000000001d8d8 g     O .rodata	0000000000000008 ta_heap_size
0000000000005ed8 g     F .text	00000000000000cc TEE_ResetTransientObject
0000000000009684 g     F .text	000000000000000c _utee_asymm_operate
000000000000e08c g     F .text	0000000000000030 _base64_enc_len
000000000000f28c g     F .text	0000000000000354 mbedtls_mpi_read_string
000000000000686c g     F .text	0000000000000174 __GP11_TEE_GenerateKey
0000000000015224 g     F .text	00000000000007b0 mbedtls_mpi_core_mla
000000000000a954 g     F .text	00000000000000f4 TEE_BigIntNeg
00000000000096d8 g     F .text	000000000000000c _utee_storage_free_enum
0000000000000000 g       .text	0000000000000000 __text_start
000000000000d8d8 g     F .text	0000000000000150 TEE_GetNextProperty
0000000000007004 g     F .text	0000000000000078 TEE_StartPersistentObjectEnumerator
000000000000fec0 g     F .text	000000000000004c mbedtls_mpi_shift_r
00000000000196dc g     F .text	0000000000000030 malloc_buffer_overlaps_heap
0000000000009588 g     F .text	000000000000000c _utee_hash_init
000000000000ae60 g     F .text	0000000000000040 TEE_BigIntSubMod
000000000001390c g     F .text	00000000000004e0 mbedtls_mpi_gen_prime
000000000000d290 g     F .text	00000000000000ac TEE_GetPropertyAsBinaryBlock
000000000000ef34 g     F .text	0000000000000060 mbedtls_mpi_get_bit
0000000000015e0c g     F .text	0000000000000130 mbedtls_mpi_core_random
000000000001d8e0 g     O .rodata	0000000000000008 __ta_no_share_heap_size
000000000000fb44 g     F .text	00000000000000a4 mbedtls_mpi_read_binary
0000000000000a24 g     F .text	00000000000000f0 trace_printf
0000000000011bd8 g     F .text	0000000000000040 mbedtls_mpi_montmul
0000000000009744 g     F .text	000000000000000c _utee_cache_operation
0000000000019868 g     F .text	0000000000000180 memcpy
000000000001613c g     F .text	0000000000000220 mbedtls_mpi_core_exp_mod
000000000000c1d4 g     F .text	00000000000000e0 TEE_BigIntConvertFromFMM
0000000000007908 g     F .text	0000000000000020 TEE_Panic
00000000000032f0 g     F .text	0000000000000038 puts
000000000000c2b4 g     F .text	0000000000000158 TEE_BigIntComputeFMM
0000000000004c5c g     F .text	000000000000003c TEE_GetREETime
0000000000006ec0 g     F .text	00000000000000b4 TEE_AllocatePersistentObjectEnumerator
00000000000203f0 g     O .data	0000000000000108 ta_props
0000000000004e44 g     F .text	0000000000000024 __GP11_TEE_Malloc
00000000000041a0 g     F .text	0000000000000190 __GP11_TEE_OpenTASession
0000000000007a78 g     F .text	0000000000000044 __utee_check_instring_annotation
0000000000018e94 g     F .text	0000000000000054 malloc
000000000000d5f0 g     F .text	0000000000000028 TEE_FreePropertyEnumerator
00000000000165fc g     F .text	0000000000000024 mbedtls_ct_mpi_uint_mask
00000000000066fc g     F .text	0000000000000170 TEE_GenerateKey
0000000000019804 g     F .text	0000000000000064 vsnprintf
00000000000205b8 g     O .data	0000000000000004 trace_level
0000000000006b14 g     F .text	0000000000000040 __GP11_TEE_OpenPersistentObject
0000000000009f4c g     F .text	0000000000000090 TEE_BigIntCmp
000000000001da78 g     O .rodata	0000000000000008 ta_num_props
0000000000017ebc g     F .text	0000000000000138 bgetr
000000000000969c g     F .text	000000000000000c _utee_storage_obj_open
0000000000004a44 g     F .text	0000000000000030 __GP11_TEE_MemCompare
000000000001a2a8 g     F .text	0000000000000048 mempool_free
0000000000009594 g     F .text	000000000000000c _utee_hash_update
0000000000009bd0 g     F .text	00000000000000dc TEE_BigIntConvertToOctetString
000000000000f170 g     F .text	0000000000000030 mbedtls_mpi_bitlen
000000000000a2a8 g     F .text	0000000000000084 TEE_BigIntGetBit
000000000001d8d0 g     O .rodata	0000000000000003 trace_ext_prefix
00000000000096fc g     F .text	000000000000000c _utee_storage_next_enum
0000000000018a90 g     F .text	0000000000000038 raw_malloc
0000000000017dc8 g     F .text	00000000000000f4 bgetz
0000000000016680 g     F .text	000000000000004c mbedtls_ct_size_bool_eq
00000000000049ac g     F .text	0000000000000010 TEE_GetInstanceData
0000000000004b18 g     F .text	0000000000000048 TEE_Wait
0000000000010aa0 g     F .text	00000000000002d0 mbedtls_mpi_mul_mpi
000000000000a274 g     F .text	0000000000000034 __GP11_TEE_BigIntShiftRight
00000000000175e8 g     F .text	0000000000000030 mbedtls_put_unaligned_uint64
000000000000505c g     F .text	0000000000000028 TEE_CacheFlush
0000000000000b14 g     F .text	00000000000003cc trace_vprintf
00000000000006b4 g     F .text	0000000000000008 TA_DestroyEntryPoint
000000000000e73c g     F .text	0000000000000024 mbedtls_mpi_init
00000000000096b4 g     F .text	000000000000000c _utee_storage_obj_del
000000000000f0d0 g     F .text	00000000000000a0 mbedtls_mpi_lsb
000000000000e01c g     F .text	000000000000005c _assert_log
0000000000009570 g     F .text	000000000000000c _utee_cryp_state_copy
000000000000c170 g     F .text	0000000000000014 TEE_BigIntFMMContextSizeInU32
0000000000007ec4 g     F .text	00000000000000fc tee_unmap
0000000000016758 g     F .text	0000000000000048 mbedtls_ct_uint_if
0000000000006df8 g     F .text	0000000000000098 TEE_RenamePersistentObject
0000000000006174 g     F .text	00000000000001d0 __GP11_TEE_PopulateTransientObject
00000000000097e8 g     F .text	0000000000000064 _TEE_MathAPI_Init
0000000000017618 g     F .text	00000000000000f0 mbedtls_xor
000000000000da7c g     F .text	0000000000000434 __utee_tcb_init
00000000000108f8 g     F .text	0000000000000030 mbedtls_mpi_add_mpi
0000000000009750 g     F .text	0000000000000020 abort
0000000000012c74 g     F .text	00000000000000b0 mbedtls_mpi_random
0000000000000888 g     F .text	0000000000000030 __stack_chk_fail
0000000000007b88 g     F .text	000000000000003c __utee_check_out_annotation
00000000000205c0 g     O .bss	0000000000008000 ta_heap
000000000000af14 g     F .text	000000000000016c TEE_BigIntInvMod
00000000000083c4 g     F .text	00000000000001fc __utee_call_elf_init_fn
00000000000054b0 g     F .text	0000000000000124 __GP11_TEE_GetObjectInfo
00000000000006d8 g     F .text	0000000000000014 TA_CloseSessionEntryPoint
00000000000006ec g     F .text	00000000000000d0 __GP11_TA_InvokeCommandEntryPoint
00000000000094f8 g     F .text	000000000000000c _utee_close_ta_session
000000000000c0e4 g     F .text	0000000000000034 __GP11_TEE_BigIntInitFMMContext
00000000000056e8 g     F .text	000000000000010c __GP11_TEE_GetObjectInfo1
00000000000069e0 g     F .text	0000000000000134 TEE_OpenPersistentObject
00000000000163f8 g     F .text	0000000000000060 mbedtls_mpi_core_check_zero_ct
0000000000010928 g     F .text	0000000000000030 mbedtls_mpi_sub_mpi
000000000001a2f0 g     F .text	00000000000000f8 consttime_memcmp
00000000000094b0 g     F .text	000000000000000c _utee_return
00000000000094c8 g     F .text	000000000000000c __utee_panic
000000000001653c g     F .text	000000000000009c mbedtls_ct_memcmp
000000000000deb0 g     F .text	0000000000000040 __tls_get_addr
000000000000084c g     F .text	000000000000003c TA_InvokeCommandEntryPoint
0000000000008690 g     F .text	0000000000000024 __utee_call_elf_fini_fn
0000000000019118 g     F .text	0000000000000024 free_wipe
000000000001a13c g     F .text	0000000000000088 mempool_alloc
00000000000094a4 g     F .text	000000000000000c _utee_panic
000000000001922c g     F .text	0000000000000040 raw_malloc_init_ctx
000000000001a1c4 g     F .text	00000000000000e4 mempool_calloc
0000000000009738 g     F .text	000000000000000c _utee_cryp_obj_generate_key
0000000000009720 g     F .text	000000000000000c _utee_storage_obj_trunc
00000000000064f4 g     F .text	00000000000000b0 TEE_CopyObjectAttributes
0000000000020520 g     O .data	0000000000000060 tee_props
0000000000009528 g     F .text	000000000000000c _utee_unmask_cancellation
000000000000d5c8 g     F .text	0000000000000028 TEE_ResetPropertyEnumerator
0000000000018f38 g     F .text	000000000000005c calloc
0000000000004c98 g     F .text	00000000000001ac TEE_Malloc
0000000000004890 g     F .text	00000000000000c8 TEE_CheckMemoryAccessRights
00000000000174f0 g     F .text	0000000000000064 mbedtls_get_unaligned_uint32
000000000000d33c g     F .text	0000000000000100 TEE_GetPropertyAsUUID
00000000000094d4 g     F .text	000000000000000c _utee_get_property
000000000000a3a0 g     F .text	00000000000000c4 TEE_BigIntSetBit
000000000000ee8c g     F .text	00000000000000a8 mbedtls_mpi_lset
00000000000073b4 g     F .text	00000000000000f4 TEE_ReadObjectData
000000000000590c g     F .text	0000000000000154 TEE_GetObjectBufferAttribute
0000000000000818 g     F .text	0000000000000034 TA_OpenSessionEntryPoint
000000000001635c g     F .text	000000000000009c mbedtls_mpi_core_sub_int
00000000000006bc g     F .text	000000000000001c __GP11_TA_OpenSessionEntryPoint
000000000000def0 g     F .text	000000000000012c dl_iterate_phdr
000000000002be68 g       .bss	0000000000000000 __ftrace_buf_end
00000000000285e0 g     O .bss	0000000000000004 ta_param_types
00000000000117c4 g     F .text	00000000000000ac mbedtls_mpi_div_int
00000000000050ac g     F .text	0000000000000168 __utee_from_attr
0000000000014a90 g     F .text	0000000000000148 mbedtls_mpi_core_write_le
00000000000137f4 g     F .text	0000000000000118 mbedtls_mpi_is_prime_ext
000000000000bfb0 g     F .text	00000000000000c4 TEE_BigIntIsProbablePrime
0000000000017554 g     F .text	0000000000000030 mbedtls_put_unaligned_uint32
0000000000010d70 g     F .text	000000000000011c mbedtls_mpi_mul_int
0000000000006d98 g     F .text	0000000000000060 TEE_CloseAndDeletePersistentObject1
0000000000011d88 g     F .text	0000000000000b9c mbedtls_mpi_exp_mod
0000000000016c58 g     F .text	0000000000000118 mbedtls_mpi_safe_cond_assign
000000000000c9f8 g     F .text	00000000000003d0 TEE_GetPropertyAsString
0000000000016f9c g     F .text	00000000000001d4 mbedtls_mpi_lt_mpi_ct
0000000000009a1c g     F .text	0000000000000084 TEE_BigIntInit
0000000000009cac g     F .text	0000000000000098 __GP11_TEE_BigIntConvertToOctetString
000000000000a464 g     F .text	00000000000000b0 TEE_BigIntAssign
0000000000007abc g     F .text	0000000000000064 __utee_check_outstring_annotation
00000000000049bc g     F .text	000000000000002c TEE_MemMove
0000000000017708 g     F .text	0000000000000044 mbedtls_platform_zeroize
0000000000009acc g     F .text	00000000000000cc TEE_BigIntConvertFromOctetString
0000000000009678 g     F .text	000000000000000c _utee_authenc_dec_final
000000000000ff0c g     F .text	00000000000001b8 mbedtls_mpi_cmp_abs
0000000000009708 g     F .text	000000000000000c _utee_storage_obj_read
0000000000002f04 g     F .text	00000000000001b8 memchr
0000000000004798 g     F .text	000000000000007c TEE_UnmaskCancellation
0000000000005384 g     F .text	000000000000012c TEE_GetObjectInfo
0000000000013dec g     F .text	0000000000000630 mbedtls_mpi_self_test
0000000000007a10 g     F .text	0000000000000068 __utee_check_gp11_outbuf_annotation
000000000000972c g     F .text	000000000000000c _utee_storage_obj_seek
0000000000005e0c g     F .text	00000000000000cc TEE_FreeTransientObject
0000000000014798 g     F .text	0000000000000118 mbedtls_mpi_core_cond_swap
000000000000951c g     F .text	000000000000000c _utee_check_access_rights
00000000000149b4 g     F .text	00000000000000dc mbedtls_mpi_core_read_be
0000000000004550 g     F .text	00000000000001d0 __GP11_TEE_InvokeTACommand
00000000000102e4 g     F .text	000000000000009c mbedtls_mpi_cmp_int
000000000000e3b0 g     F .text	000000000000031c _base64_dec
00000000000096e4 g     F .text	000000000000000c _utee_storage_reset_enum
00000000000169dc g     F .text	0000000000000140 mbedtls_ct_base64_dec_value
0000000000007bc4 g     F .text	0000000000000048 __utee_check_attr_in_annotation
0000000000009660 g     F .text	000000000000000c _utee_authenc_update_payload
000000000000adbc g     F .text	0000000000000064 TEE_BigIntMod
0000000000011960 g     F .text	00000000000001ac mbedtls_mpi_mod_int
000000000000faa0 g     F .text	00000000000000a4 mbedtls_mpi_read_binary_le
000000000000aba8 g     F .text	0000000000000214 TEE_BigIntDiv
00000000000095f4 g     F .text	000000000000000c _utee_cryp_obj_alloc
000000000002be68 g       .bss	0000000000000000 __ftrace_buf_start
0000000000019ed4 g     F .text	00000000000000b4 strlcpy
00000000000168b0 g     F .text	000000000000012c mbedtls_ct_base64_enc_char
000000000000ec4c g     F .text	0000000000000190 mbedtls_mpi_copy
0000000000014460 g     F .text	0000000000000064 mbedtls_mpi_core_clz
000000000000d43c g     F .text	0000000000000100 TEE_GetPropertyAsIdentity
0000000000001170 g     F .text	0000000000000064 __vsprintf
000000000000d080 g     F .text	0000000000000100 TEE_GetPropertyAsU64
0000000000009558 g     F .text	000000000000000c _utee_set_ta_time
0000000000009504 g     F .text	000000000000000c _utee_invoke_ta_command
00000000000174c0 g     F .text	0000000000000030 mbedtls_put_unaligned_uint16
00000000000058a4 g     F .text	0000000000000068 TEE_RestrictObjectUsage1
0000000000018fc8 g     F .text	0000000000000054 realloc
000000000000eddc g     F .text	0000000000000084 mbedtls_mpi_swap
000000000001a0ac g     F .text	0000000000000090 mempool_alloc_pool
000000000000aa48 g     F .text	0000000000000134 TEE_BigIntMul
0000000000019224 g     F .text	0000000000000008 raw_malloc_get_ctx_size
000000000000fc68 g     F .text	0000000000000258 mbedtls_mpi_shift_l
00000000000100c4 g     F .text	0000000000000220 mbedtls_mpi_cmp_mpi
0000000000004a74 g     F .text	0000000000000034 TEE_MemFill
000000000001967c g     F .text	0000000000000030 malloc_add_pool
000000000000090c g     F .text	0000000000000010 trace_get_level
0000000000010380 g     F .text	0000000000000210 mbedtls_mpi_add_abs
00000000000057f4 g     F .text	00000000000000b0 TEE_RestrictObjectUsage
000000000000c134 g     F .text	0000000000000020 TEE_BigIntFMMSizeInU32
000000000000ce78 g     F .text	0000000000000108 TEE_GetPropertyAsBool
0000000000018c9c g     F .text	00000000000001f8 raw_realloc
000000000000c074 g     F .text	0000000000000028 TEE_BigIntInitFMM
0000000000005cac g     F .text	0000000000000048 TEE_CloseObject
00000000000095ac g     F .text	000000000000000c _utee_cipher_init
0000000000009008 g     F .text	00000000000000ac __utee_entry
000000000000cf80 g     F .text	0000000000000100 TEE_GetPropertyAsU32
000000000001a3e8 g       .text	0000000000000000 __text_end
000000000000b080 g     F .text	0000000000000114 TEE_BigIntRelativePrime
0000000000011870 g     F .text	00000000000000f0 mbedtls_mpi_mod_mpi
0000000000016e84 g     F .text	0000000000000118 mbedtls_mpi_core_lt_ct
00000000000095d0 g     F .text	000000000000000c _utee_cryp_obj_get_info
0000000000015130 g     F .text	00000000000000f4 mbedtls_mpi_core_sub
00000000000183f8 g     F .text	0000000000000154 bpool
000000000000d53c g     F .text	000000000000008c TEE_AllocatePropertyEnumerator
0000000000009564 g     F .text	000000000000000c _utee_cryp_state_alloc
0000000000004720 g     F .text	0000000000000078 TEE_GetCancellationFlag
0000000000006ce8 g     F .text	0000000000000068 __GP11_TEE_CreatePersistentObject
000000000001745c g     F .text	0000000000000064 mbedtls_get_unaligned_uint16
0000000000012924 g     F .text	0000000000000298 mbedtls_mpi_gcd
0000000000004c04 g     F .text	0000000000000058 TEE_SetTAPersistentTime
000000000000fbe8 g     F .text	0000000000000040 mbedtls_mpi_write_binary_le
0000000000019bf4 g     F .text	00000000000001cc memset
000000000001895c g     F .text	0000000000000134 raw_memalign
0000000000004b60 g     F .text	00000000000000a4 TEE_GetTAPersistentTime
0000000000017584 g     F .text	0000000000000064 mbedtls_get_unaligned_uint64
0000000000000ee0 g     F .text	0000000000000024 dhex_dump
0000000000014604 g     F .text	00000000000000ac mbedtls_mpi_core_bigendian_to_host
0000000000006b54 g     F .text	0000000000000194 TEE_CreatePersistentObject
0000000000004814 g     F .text	000000000000007c TEE_MaskCancellation
0000000000007650 g     F .text	0000000000000090 TEE_TruncateObjectData
00000000000095e8 g     F .text	000000000000000c _utee_cryp_obj_get_attr
00000000000055d4 g     F .text	0000000000000114 TEE_GetObjectInfo1
00000000000095c4 g     F .text	000000000000000c _utee_cipher_final
00000000000008b8 g     F .text	0000000000000054 trace_set_level
0000000000016458 g     F .text	0000000000000054 mbedtls_mpi_core_to_mont_rep
0000000000005b10 g     F .text	000000000000019c TEE_GetObjectValueAttribute
00000000000166f0 g     F .text	0000000000000068 mbedtls_ct_mpi_uint_lt
0000000000005a60 g     F .text	00000000000000b0 __GP11_TEE_GetObjectBufferAttribute
000000000000957c g     F .text	000000000000000c _utee_cryp_state_free
0000000000019dc0 g     F .text	0000000000000114 strcmp
00000000000094ec g     F .text	000000000000000c _utee_open_ta_session
0000000000009e08 g     F .text	0000000000000144 TEE_BigIntConvertToS32
000000000000a91c g     F .text	0000000000000038 TEE_BigIntSub
00000000000078d8 g     F .text	0000000000000030 __GP11_TEE_SeekObjectData
0000000000000810 g     F .text	0000000000000008 tahead_get_trace_level
00000000000096f0 g     F .text	000000000000000c _utee_storage_start_enum
0000000000007708 g     F .text	00000000000001d0 TEE_SeekObjectData
0000000000007db8 g     F .text	000000000000010c tee_map_zi
00000000000076e0 g     F .text	0000000000000028 __GP11_TEE_TruncateObjectData
0000000000011cb0 g     F .text	0000000000000038 mbedtls_mpi_montred
000000000001901c g     F .text	000000000000005c memalign
00000000000165d8 g     F .text	0000000000000024 mbedtls_ct_uint_mask
0000000000009aa0 g     F .text	000000000000002c __GP11_TEE_BigIntInit
0000000000009d44 g     F .text	00000000000000c4 TEE_BigIntConvertFromS32
0000000000010958 g     F .text	00000000000000a4 mbedtls_mpi_add_int
000000000000966c g     F .text	000000000000000c _utee_authenc_enc_final
00000000000196ac g     F .text	0000000000000030 malloc_buffer_is_within_alloced
0000000000009600 g     F .text	000000000000000c _utee_cryp_obj_close
000000000000c0c8 g     F .text	000000000000001c TEE_BigIntInitFMMContext
0000000000009534 g     F .text	000000000000000c _utee_mask_cancellation
0000000000028628 g     O .bss	0000000000000008 __ta_no_share_malloc_ctx
00000000000096c0 g     F .text	000000000000000c _utee_storage_obj_rename
0000000000007218 g     F .text	000000000000019c __GP11_TEE_GetNextPersistentObject
000000000000755c g     F .text	00000000000000c4 TEE_WriteObjectData
0000000000006fbc g     F .text	0000000000000048 TEE_ResetPersistentObjectEnumerator
0000000000004958 g     F .text	0000000000000030 __GP11_TEE_CheckMemoryAccessRights
000000000000ab7c g     F .text	000000000000002c TEE_BigIntSquare
0000000000009714 g     F .text	000000000000000c _utee_storage_obj_write
00000000000144c4 g     F .text	00000000000000b0 mbedtls_mpi_core_bitlen
00000000000006ac g     F .text	0000000000000008 TA_CreateEntryPoint
00000000000007bc g     F .text	0000000000000054 __ta_entry
00000000000285c0 g     O .bss	0000000000000000 __ta_no_share_heap
0000000000009654 g     F .text	000000000000000c _utee_authenc_update_aad
0000000000011b40 g     F .text	0000000000000028 mbedtls_mpi_montg_init
0000000000000f04 g     F .text	00000000000000f4 snprintk
000000000000a32c g     F .text	0000000000000074 TEE_BigIntGetBitCount
0000000000009624 g     F .text	000000000000000c _utee_cryp_obj_copy
000000000000aea0 g     F .text	0000000000000040 TEE_BigIntMulMod
0000000000012d24 g     F .text	0000000000000624 mbedtls_mpi_inv_mod
0000000000007c0c g     F .text	0000000000000048 __utee_check_gp11_attr_in_annotation
00000000000285e8 g     O .bss	0000000000000040 ta_params
0000000000010f5c g     F .text	0000000000000868 mbedtls_mpi_div_mpi
0000000000007b20 g     F .text	0000000000000068 __utee_check_gp11_outstring_annotation
000000000000f1a0 g     F .text	0000000000000024 mbedtls_mpi_size
00000000000178a0 g     F .text	0000000000000528 bget
00000000000074a8 g     F .text	00000000000000b4 __GP11_TEE_ReadObjectData
0000000000005cf4 g     F .text	0000000000000048 TEE_AllocateTransientObject
000000000000c184 g     F .text	000000000000001c __GP11_TEE_BigIntFMMContextSizeInU32
000000000000d618 g     F .text	0000000000000044 TEE_StartPropertyEnumerator
0000000000009540 g     F .text	000000000000000c _utee_wait
000000000000ef94 g     F .text	000000000000013c mbedtls_mpi_set_bit
00000000000146b0 g     F .text	000000000000009c mbedtls_mpi_core_uint_le_mpi
0000000000004fc8 g     F .text	000000000000006c TEE_Free
0000000000005084 g     F .text	0000000000000028 TEE_CacheInvalidate
000000000000e078 g     F .text	0000000000000014 _assert_break
0000000000015fa8 g     F .text	0000000000000078 mbedtls_mpi_core_exp_mod_working_limbs
000000000000ae20 g     F .text	0000000000000040 TEE_BigIntAddMod
0000000000016808 g     F .text	00000000000000a8 mbedtls_ct_mpi_uint_cond_assign
000000000000c09c g     F .text	000000000000002c __GP11_TEE_BigIntInitFMM
000000000000954c g     F .text	000000000000000c _utee_get_time
0000000000014f28 g     F .text	00000000000000fc mbedtls_mpi_core_add
000000000000d834 g     F .text	00000000000000a4 TEE_GetPropertyName
0000000000004fa0 g     F .text	0000000000000028 __GP11_TEE_Realloc
0000000000009618 g     F .text	000000000000000c _utee_cryp_obj_populate
00000000000148b0 g     F .text	0000000000000104 mbedtls_mpi_core_read_le
0000000000005214 g     F .text	0000000000000170 __utee_from_gp11_attr
0000000000004a18 g     F .text	000000000000002c TEE_MemCompare
00000000000095b8 g     F .text	000000000000000c _utee_cipher_update
000000000000105c g     F .text	0000000000000114 __vsnprintf
0000000000028630 g     O .bss	0000000000000010 __elf_phdr_info
0000000000006f74 g     F .text	0000000000000048 TEE_FreePersistentObjectEnumerator
0000000000004004 g     F .text	000000000000019c TEE_OpenTASession
00000000000164ac g     F .text	0000000000000090 mbedtls_mpi_core_from_mont_rep
0000000000003190 g     F .text	000000000000002c trace_ext_puts
000000000000cdc8 g     F .text	00000000000000b0 __GP11_TEE_GetPropertyAsString
0000000000019548 g     F .text	0000000000000134 raw_malloc_buffer_is_within_alloced
00000000000031bc g     F .text	0000000000000008 trace_ext_get_thread_id
0000000000019424 g     F .text	0000000000000124 raw_malloc_buffer_overlaps_heap
0000000000006d50 g     F .text	0000000000000048 TEE_CloseAndDeletePersistentObject
0000000000009630 g     F .text	000000000000000c _utee_cryp_derive_key
000000000000e7a0 g     F .text	00000000000000b0 mbedtls_mpi_free
000000000000960c g     F .text	000000000000000c _utee_cryp_obj_reset
0000000000005034 g     F .text	0000000000000028 TEE_CacheClean
00000000000094e0 g     F .text	000000000000000c _utee_get_property_name_to_index
0000000000015a60 g     F .text	000000000000015c mbedtls_mpi_core_montmul
0000000000018b20 g     F .text	000000000000017c raw_calloc
000000000000e0bc g     F .text	0000000000000270 _base64_enc
0000000000016d70 g     F .text	0000000000000114 mbedtls_mpi_safe_cond_swap
0000000000009648 g     F .text	000000000000000c _utee_authenc_init
00000000000065a4 g     F .text	0000000000000158 TEE_CopyObjectAttributes1
0000000000006e90 g     F .text	0000000000000030 __GP11_TEE_RenamePersistentObject
00000000000030bc g     F .text	00000000000000d4 strlen
000000000000bc64 g     F .text	0000000000000310 TEE_BigIntComputeExtendedGcd
00000000000096cc g     F .text	000000000000000c _utee_storage_alloc_enum
000000000000b1fc g     F .text	0000000000000244 TEE_BigIntExpMod
0000000000004adc g     F .text	000000000000003c TEE_GetSystemTime
0000000000009690 g     F .text	000000000000000c _utee_asymm_verify
000000000001eea8 g     O .ta_head	0000000000000020 ta_head
0000000000017ff4 g     F .text	0000000000000404 brel
00000000000093d4 g     F .text	00000000000000d0 __ta_invoke_cmd
000000000000d180 g     F .text	0000000000000110 __GP11_TEE_GetPropertyAsBinaryBlock
0000000000010590 g     F .text	000000000000023c mbedtls_mpi_sub_abs
0000000000012bbc g     F .text	00000000000000b8 mbedtls_mpi_fill_random
0000000000005d3c g     F .text	00000000000000d0 __GP11_TEE_AllocateTransientObject
000000000000930c g     F .text	00000000000000c8 __ta_open_sess
0000000000004988 g     F .text	0000000000000024 TEE_SetInstanceData
0000000000009510 g     F .text	000000000000000c _utee_get_cancellation_flag
000000000001474c g     F .text	000000000000004c mbedtls_mpi_core_cond_assign
000000000000f770 g     F .text	0000000000000330 mbedtls_mpi_write_string
0000000000019078 g     F .text	000000000000004c aligned_alloc
00000000000159d4 g     F .text	000000000000008c mbedtls_mpi_core_montmul_init
000000000000707c g     F .text	000000000000019c TEE_GetNextPersistentObject
000000000000c118 g     F .text	000000000000001c TEE_BigIntInitFMMContext1
0000000000007620 g     F .text	0000000000000030 __GP11_TEE_WriteObjectData
0000000000015bbc g     F .text	00000000000000c0 mbedtls_mpi_core_get_mont_r2_unsafe
0000000000004330 g     F .text	0000000000000044 TEE_CloseTASession
00000000000096a8 g     F .text	000000000000000c _utee_storage_obj_create
000000000000c154 g     F .text	000000000000001c __GP11_TEE_BigIntFMMSizeInU32
00000000000190f4 g     F .text	0000000000000024 free
000000000002be60 g     O .bss	0000000000000008 mbedtls_mpi_mempool
00000000000095a0 g     F .text	000000000000000c _utee_hash_final



Disassembly of section .text:

0000000000000000 <delete_object>:
delete_object():
/root/Desktop/aes-web/SaveStorage/ta/secure_storage_ta.c:7
       0:	a9bb7bfd 	stp	x29, x30, [sp, #-80]!
       4:	910003fd 	mov	x29, sp
       8:	b9001fe0 	str	w0, [sp, #28]
       c:	f9000be1 	str	x1, [sp, #16]
      10:	90000100 	adrp	x0, 20000 <_DYNAMIC>
      14:	f9409800 	ldr	x0, [x0, #304]
      18:	f9400001 	ldr	x1, [x0]
      1c:	f90027e1 	str	x1, [sp, #72]
      20:	d2800001 	mov	x1, #0x0                   	// #0
/root/Desktop/aes-web/SaveStorage/ta/secure_storage_ta.c:8
      24:	528000a0 	mov	w0, #0x5                   	// #5
      28:	b9002be0 	str	w0, [sp, #40]
/root/Desktop/aes-web/SaveStorage/ta/secure_storage_ta.c:18
      2c:	b9401fe1 	ldr	w1, [sp, #28]
      30:	b9402be0 	ldr	w0, [sp, #40]
      34:	6b00003f 	cmp	w1, w0
      38:	54000060 	b.eq	44 <delete_object+0x44>  // b.none
/root/Desktop/aes-web/SaveStorage/ta/secure_storage_ta.c:19
      3c:	129fff20 	mov	w0, #0xffff0006            	// #-65530
      40:	1400002b 	b	ec <delete_object+0xec>
/root/Desktop/aes-web/SaveStorage/ta/secure_storage_ta.c:21
      44:	f9400be0 	ldr	x0, [sp, #16]
      48:	b9400800 	ldr	w0, [x0, #8]
      4c:	2a0003e0 	mov	w0, w0
      50:	f9001fe0 	str	x0, [sp, #56]
/root/Desktop/aes-web/SaveStorage/ta/secure_storage_ta.c:22
      54:	f9401fe0 	ldr	x0, [sp, #56]
      58:	52800001 	mov	w1, #0x0                   	// #0
      5c:	9400137a 	bl	4e44 <__GP11_TEE_Malloc>
      60:	f90023e0 	str	x0, [sp, #64]
/root/Desktop/aes-web/SaveStorage/ta/secure_storage_ta.c:23
      64:	f94023e0 	ldr	x0, [sp, #64]
      68:	f100001f 	cmp	x0, #0x0
      6c:	54000061 	b.ne	78 <delete_object+0x78>  // b.any
/root/Desktop/aes-web/SaveStorage/ta/secure_storage_ta.c:24
      70:	129ffe60 	mov	w0, #0xffff000c            	// #-65524
      74:	1400001e 	b	ec <delete_object+0xec>
/root/Desktop/aes-web/SaveStorage/ta/secure_storage_ta.c:26
      78:	f9400be0 	ldr	x0, [sp, #16]
      7c:	f9400000 	ldr	x0, [x0]
      80:	f9401fe1 	ldr	x1, [sp, #56]
      84:	2a0103e2 	mov	w2, w1
      88:	aa0003e1 	mov	x1, x0
      8c:	f94023e0 	ldr	x0, [sp, #64]
      90:	94001256 	bl	49e8 <__GP11_TEE_MemMove>
/root/Desktop/aes-web/SaveStorage/ta/secure_storage_ta.c:28
      94:	f9401fe0 	ldr	x0, [sp, #56]
      98:	2a0003e1 	mov	w1, w0
      9c:	9100c3e0 	add	x0, sp, #0x30
      a0:	aa0003e4 	mov	x4, x0
      a4:	528000a3 	mov	w3, #0x5                   	// #5
      a8:	2a0103e2 	mov	w2, w1
      ac:	f94023e1 	ldr	x1, [sp, #64]
      b0:	52800020 	mov	w0, #0x1                   	// #1
      b4:	94001a98 	bl	6b14 <__GP11_TEE_OpenPersistentObject>
      b8:	b9002fe0 	str	w0, [sp, #44]
/root/Desktop/aes-web/SaveStorage/ta/secure_storage_ta.c:33
      bc:	b9402fe0 	ldr	w0, [sp, #44]
      c0:	7100001f 	cmp	w0, #0x0
      c4:	540000a0 	b.eq	d8 <delete_object+0xd8>  // b.none
/root/Desktop/aes-web/SaveStorage/ta/secure_storage_ta.c:34
      c8:	f94023e0 	ldr	x0, [sp, #64]
      cc:	940013bf 	bl	4fc8 <TEE_Free>
/root/Desktop/aes-web/SaveStorage/ta/secure_storage_ta.c:35
      d0:	b9402fe0 	ldr	w0, [sp, #44]
      d4:	14000006 	b	ec <delete_object+0xec>
/root/Desktop/aes-web/SaveStorage/ta/secure_storage_ta.c:38
      d8:	f9401be0 	ldr	x0, [sp, #48]
      dc:	94001b2f 	bl	6d98 <TEE_CloseAndDeletePersistentObject1>
/root/Desktop/aes-web/SaveStorage/ta/secure_storage_ta.c:39
      e0:	f94023e0 	ldr	x0, [sp, #64]
      e4:	940013b9 	bl	4fc8 <TEE_Free>
/root/Desktop/aes-web/SaveStorage/ta/secure_storage_ta.c:41
      e8:	b9402fe0 	ldr	w0, [sp, #44]
/root/Desktop/aes-web/SaveStorage/ta/secure_storage_ta.c:42 (discriminator 1)
      ec:	2a0003e1 	mov	w1, w0
      f0:	90000100 	adrp	x0, 20000 <_DYNAMIC>
      f4:	f9409800 	ldr	x0, [x0, #304]
      f8:	f94027e3 	ldr	x3, [sp, #72]
      fc:	f9400002 	ldr	x2, [x0]
     100:	eb020063 	subs	x3, x3, x2
     104:	d2800002 	mov	x2, #0x0                   	// #0
     108:	54000040 	b.eq	110 <delete_object+0x110>  // b.none
/root/Desktop/aes-web/SaveStorage/ta/secure_storage_ta.c:42
     10c:	940001df 	bl	888 <__stack_chk_fail>
     110:	2a0103e0 	mov	w0, w1
     114:	a8c57bfd 	ldp	x29, x30, [sp], #80
     118:	d65f03c0 	ret

000000000000011c <create_raw_object>:
create_raw_object():
/root/Desktop/aes-web/SaveStorage/ta/secure_storage_ta.c:45
     11c:	a9ba7bfd 	stp	x29, x30, [sp, #-96]!
     120:	910003fd 	mov	x29, sp
     124:	b9001fe0 	str	w0, [sp, #28]
     128:	f9000be1 	str	x1, [sp, #16]
     12c:	90000100 	adrp	x0, 20000 <_DYNAMIC>
     130:	f9409800 	ldr	x0, [x0, #304]
     134:	f9400001 	ldr	x1, [x0]
     138:	f9002fe1 	str	x1, [sp, #88]
     13c:	d2800001 	mov	x1, #0x0                   	// #0
/root/Desktop/aes-web/SaveStorage/ta/secure_storage_ta.c:46
     140:	52800aa0 	mov	w0, #0x55                  	// #85
     144:	b90027e0 	str	w0, [sp, #36]
/root/Desktop/aes-web/SaveStorage/ta/secure_storage_ta.c:59
     148:	b9401fe1 	ldr	w1, [sp, #28]
     14c:	b94027e0 	ldr	w0, [sp, #36]
     150:	6b00003f 	cmp	w1, w0
     154:	54000060 	b.eq	160 <create_raw_object+0x44>  // b.none
/root/Desktop/aes-web/SaveStorage/ta/secure_storage_ta.c:60
     158:	129fff20 	mov	w0, #0xffff0006            	// #-65530
     15c:	14000058 	b	2bc <create_raw_object+0x1a0>
/root/Desktop/aes-web/SaveStorage/ta/secure_storage_ta.c:62
     160:	f9400be0 	ldr	x0, [sp, #16]
     164:	b9400800 	ldr	w0, [x0, #8]
     168:	2a0003e0 	mov	w0, w0
     16c:	f9001fe0 	str	x0, [sp, #56]
/root/Desktop/aes-web/SaveStorage/ta/secure_storage_ta.c:63
     170:	f9401fe0 	ldr	x0, [sp, #56]
     174:	52800001 	mov	w1, #0x0                   	// #0
     178:	94001333 	bl	4e44 <__GP11_TEE_Malloc>
     17c:	f90023e0 	str	x0, [sp, #64]
/root/Desktop/aes-web/SaveStorage/ta/secure_storage_ta.c:64
     180:	f94023e0 	ldr	x0, [sp, #64]
     184:	f100001f 	cmp	x0, #0x0
     188:	54000061 	b.ne	194 <create_raw_object+0x78>  // b.any
/root/Desktop/aes-web/SaveStorage/ta/secure_storage_ta.c:65
     18c:	129ffe60 	mov	w0, #0xffff000c            	// #-65524
     190:	1400004b 	b	2bc <create_raw_object+0x1a0>
/root/Desktop/aes-web/SaveStorage/ta/secure_storage_ta.c:67
     194:	f9400be0 	ldr	x0, [sp, #16]
     198:	f9400000 	ldr	x0, [x0]
     19c:	f9401fe1 	ldr	x1, [sp, #56]
     1a0:	2a0103e2 	mov	w2, w1
     1a4:	aa0003e1 	mov	x1, x0
     1a8:	f94023e0 	ldr	x0, [sp, #64]
     1ac:	9400120f 	bl	49e8 <__GP11_TEE_MemMove>
/root/Desktop/aes-web/SaveStorage/ta/secure_storage_ta.c:69
     1b0:	f9400be0 	ldr	x0, [sp, #16]
     1b4:	91004000 	add	x0, x0, #0x10
     1b8:	b9400800 	ldr	w0, [x0, #8]
     1bc:	2a0003e0 	mov	w0, w0
     1c0:	f90027e0 	str	x0, [sp, #72]
/root/Desktop/aes-web/SaveStorage/ta/secure_storage_ta.c:70
     1c4:	f94027e0 	ldr	x0, [sp, #72]
     1c8:	52800001 	mov	w1, #0x0                   	// #0
     1cc:	9400131e 	bl	4e44 <__GP11_TEE_Malloc>
     1d0:	f9002be0 	str	x0, [sp, #80]
/root/Desktop/aes-web/SaveStorage/ta/secure_storage_ta.c:71
     1d4:	f9402be0 	ldr	x0, [sp, #80]
     1d8:	f100001f 	cmp	x0, #0x0
     1dc:	540000a1 	b.ne	1f0 <create_raw_object+0xd4>  // b.any
/root/Desktop/aes-web/SaveStorage/ta/secure_storage_ta.c:72
     1e0:	f94023e0 	ldr	x0, [sp, #64]
     1e4:	94001379 	bl	4fc8 <TEE_Free>
/root/Desktop/aes-web/SaveStorage/ta/secure_storage_ta.c:73
     1e8:	129ffe60 	mov	w0, #0xffff000c            	// #-65524
     1ec:	14000034 	b	2bc <create_raw_object+0x1a0>
/root/Desktop/aes-web/SaveStorage/ta/secure_storage_ta.c:75
     1f0:	f9400be0 	ldr	x0, [sp, #16]
     1f4:	91004000 	add	x0, x0, #0x10
     1f8:	f9400000 	ldr	x0, [x0]
     1fc:	f94027e1 	ldr	x1, [sp, #72]
     200:	2a0103e2 	mov	w2, w1
     204:	aa0003e1 	mov	x1, x0
     208:	f9402be0 	ldr	x0, [sp, #80]
     20c:	940011f7 	bl	49e8 <__GP11_TEE_MemMove>
/root/Desktop/aes-web/SaveStorage/ta/secure_storage_ta.c:77
     210:	528080e0 	mov	w0, #0x407                 	// #1031
     214:	b9002be0 	str	w0, [sp, #40]
/root/Desktop/aes-web/SaveStorage/ta/secure_storage_ta.c:82
     218:	f9401fe0 	ldr	x0, [sp, #56]
     21c:	2a0003e1 	mov	w1, w0
     220:	9100c3e0 	add	x0, sp, #0x30
     224:	aa0003e7 	mov	x7, x0
     228:	52800006 	mov	w6, #0x0                   	// #0
     22c:	d2800005 	mov	x5, #0x0                   	// #0
     230:	d2800004 	mov	x4, #0x0                   	// #0
     234:	b9402be3 	ldr	w3, [sp, #40]
     238:	2a0103e2 	mov	w2, w1
     23c:	f94023e1 	ldr	x1, [sp, #64]
     240:	52800020 	mov	w0, #0x1                   	// #1
     244:	94001aa9 	bl	6ce8 <__GP11_TEE_CreatePersistentObject>
     248:	b9002fe0 	str	w0, [sp, #44]
/root/Desktop/aes-web/SaveStorage/ta/secure_storage_ta.c:88
     24c:	b9402fe0 	ldr	w0, [sp, #44]
     250:	7100001f 	cmp	w0, #0x0
     254:	540000e0 	b.eq	270 <create_raw_object+0x154>  // b.none
/root/Desktop/aes-web/SaveStorage/ta/secure_storage_ta.c:89
     258:	f94023e0 	ldr	x0, [sp, #64]
     25c:	9400135b 	bl	4fc8 <TEE_Free>
/root/Desktop/aes-web/SaveStorage/ta/secure_storage_ta.c:90
     260:	f9402be0 	ldr	x0, [sp, #80]
     264:	94001359 	bl	4fc8 <TEE_Free>
/root/Desktop/aes-web/SaveStorage/ta/secure_storage_ta.c:91
     268:	b9402fe0 	ldr	w0, [sp, #44]
     26c:	14000014 	b	2bc <create_raw_object+0x1a0>
/root/Desktop/aes-web/SaveStorage/ta/secure_storage_ta.c:94
     270:	f9401be0 	ldr	x0, [sp, #48]
     274:	f94027e1 	ldr	x1, [sp, #72]
     278:	2a0103e2 	mov	w2, w1
     27c:	f9402be1 	ldr	x1, [sp, #80]
     280:	94001ce8 	bl	7620 <__GP11_TEE_WriteObjectData>
     284:	b9002fe0 	str	w0, [sp, #44]
/root/Desktop/aes-web/SaveStorage/ta/secure_storage_ta.c:95
     288:	b9402fe0 	ldr	w0, [sp, #44]
     28c:	7100001f 	cmp	w0, #0x0
     290:	54000080 	b.eq	2a0 <create_raw_object+0x184>  // b.none
/root/Desktop/aes-web/SaveStorage/ta/secure_storage_ta.c:96
     294:	f9401be0 	ldr	x0, [sp, #48]
     298:	94001ac0 	bl	6d98 <TEE_CloseAndDeletePersistentObject1>
     29c:	14000003 	b	2a8 <create_raw_object+0x18c>
/root/Desktop/aes-web/SaveStorage/ta/secure_storage_ta.c:98
     2a0:	f9401be0 	ldr	x0, [sp, #48]
     2a4:	94001682 	bl	5cac <TEE_CloseObject>
/root/Desktop/aes-web/SaveStorage/ta/secure_storage_ta.c:100
     2a8:	f94023e0 	ldr	x0, [sp, #64]
     2ac:	94001347 	bl	4fc8 <TEE_Free>
/root/Desktop/aes-web/SaveStorage/ta/secure_storage_ta.c:101
     2b0:	f9402be0 	ldr	x0, [sp, #80]
     2b4:	94001345 	bl	4fc8 <TEE_Free>
/root/Desktop/aes-web/SaveStorage/ta/secure_storage_ta.c:102
     2b8:	b9402fe0 	ldr	w0, [sp, #44]
/root/Desktop/aes-web/SaveStorage/ta/secure_storage_ta.c:103 (discriminator 1)
     2bc:	2a0003e1 	mov	w1, w0
     2c0:	90000100 	adrp	x0, 20000 <_DYNAMIC>
     2c4:	f9409800 	ldr	x0, [x0, #304]
     2c8:	f9402fe3 	ldr	x3, [sp, #88]
     2cc:	f9400002 	ldr	x2, [x0]
     2d0:	eb020063 	subs	x3, x3, x2
     2d4:	d2800002 	mov	x2, #0x0                   	// #0
     2d8:	54000040 	b.eq	2e0 <create_raw_object+0x1c4>  // b.none
/root/Desktop/aes-web/SaveStorage/ta/secure_storage_ta.c:103
     2dc:	9400016b 	bl	888 <__stack_chk_fail>
     2e0:	2a0103e0 	mov	w0, w1
     2e4:	a8c67bfd 	ldp	x29, x30, [sp], #96
     2e8:	d65f03c0 	ret

00000000000002ec <read_raw_object>:
read_raw_object():
/root/Desktop/aes-web/SaveStorage/ta/secure_storage_ta.c:106
     2ec:	a9b87bfd 	stp	x29, x30, [sp, #-128]!
     2f0:	910003fd 	mov	x29, sp
     2f4:	b9001fe0 	str	w0, [sp, #28]
     2f8:	f9000be1 	str	x1, [sp, #16]
     2fc:	90000100 	adrp	x0, 20000 <_DYNAMIC>
     300:	f9409800 	ldr	x0, [x0, #304]
     304:	f9400001 	ldr	x1, [x0]
     308:	f9003fe1 	str	x1, [sp, #120]
     30c:	d2800001 	mov	x1, #0x0                   	// #0
/root/Desktop/aes-web/SaveStorage/ta/secure_storage_ta.c:107
     310:	52800ca0 	mov	w0, #0x65                  	// #101
     314:	b9002fe0 	str	w0, [sp, #44]
/root/Desktop/aes-web/SaveStorage/ta/secure_storage_ta.c:121
     318:	b9401fe1 	ldr	w1, [sp, #28]
     31c:	b9402fe0 	ldr	w0, [sp, #44]
     320:	6b00003f 	cmp	w1, w0
     324:	54000060 	b.eq	330 <read_raw_object+0x44>  // b.none
/root/Desktop/aes-web/SaveStorage/ta/secure_storage_ta.c:122
     328:	129fff20 	mov	w0, #0xffff0006            	// #-65530
     32c:	14000073 	b	4f8 <read_raw_object+0x20c>
/root/Desktop/aes-web/SaveStorage/ta/secure_storage_ta.c:124
     330:	f9400be0 	ldr	x0, [sp, #16]
     334:	b9400800 	ldr	w0, [x0, #8]
     338:	2a0003e0 	mov	w0, w0
     33c:	f9001fe0 	str	x0, [sp, #56]
/root/Desktop/aes-web/SaveStorage/ta/secure_storage_ta.c:125
     340:	f9401fe0 	ldr	x0, [sp, #56]
     344:	52800001 	mov	w1, #0x0                   	// #0
     348:	940012bf 	bl	4e44 <__GP11_TEE_Malloc>
     34c:	f90023e0 	str	x0, [sp, #64]
/root/Desktop/aes-web/SaveStorage/ta/secure_storage_ta.c:126
     350:	f94023e0 	ldr	x0, [sp, #64]
     354:	f100001f 	cmp	x0, #0x0
     358:	54000061 	b.ne	364 <read_raw_object+0x78>  // b.any
/root/Desktop/aes-web/SaveStorage/ta/secure_storage_ta.c:127
     35c:	129ffe60 	mov	w0, #0xffff000c            	// #-65524
     360:	14000066 	b	4f8 <read_raw_object+0x20c>
/root/Desktop/aes-web/SaveStorage/ta/secure_storage_ta.c:129
     364:	f9400be0 	ldr	x0, [sp, #16]
     368:	f9400000 	ldr	x0, [x0]
     36c:	f9401fe1 	ldr	x1, [sp, #56]
     370:	2a0103e2 	mov	w2, w1
     374:	aa0003e1 	mov	x1, x0
     378:	f94023e0 	ldr	x0, [sp, #64]
     37c:	9400119b 	bl	49e8 <__GP11_TEE_MemMove>
/root/Desktop/aes-web/SaveStorage/ta/secure_storage_ta.c:131
     380:	f9400be0 	ldr	x0, [sp, #16]
     384:	91004000 	add	x0, x0, #0x10
     388:	b9400800 	ldr	w0, [x0, #8]
     38c:	2a0003e0 	mov	w0, w0
     390:	f90027e0 	str	x0, [sp, #72]
/root/Desktop/aes-web/SaveStorage/ta/secure_storage_ta.c:132
     394:	f94027e0 	ldr	x0, [sp, #72]
     398:	52800001 	mov	w1, #0x0                   	// #0
     39c:	940012aa 	bl	4e44 <__GP11_TEE_Malloc>
     3a0:	f9002be0 	str	x0, [sp, #80]
/root/Desktop/aes-web/SaveStorage/ta/secure_storage_ta.c:133
     3a4:	f9402be0 	ldr	x0, [sp, #80]
     3a8:	f100001f 	cmp	x0, #0x0
     3ac:	540000a1 	b.ne	3c0 <read_raw_object+0xd4>  // b.any
/root/Desktop/aes-web/SaveStorage/ta/secure_storage_ta.c:134
     3b0:	f94023e0 	ldr	x0, [sp, #64]
     3b4:	94001305 	bl	4fc8 <TEE_Free>
/root/Desktop/aes-web/SaveStorage/ta/secure_storage_ta.c:135
     3b8:	129ffe60 	mov	w0, #0xffff000c            	// #-65524
     3bc:	1400004f 	b	4f8 <read_raw_object+0x20c>
/root/Desktop/aes-web/SaveStorage/ta/secure_storage_ta.c:138
     3c0:	f9401fe0 	ldr	x0, [sp, #56]
     3c4:	2a0003e1 	mov	w1, w0
     3c8:	9100c3e0 	add	x0, sp, #0x30
     3cc:	aa0003e4 	mov	x4, x0
     3d0:	52800223 	mov	w3, #0x11                  	// #17
     3d4:	2a0103e2 	mov	w2, w1
     3d8:	f94023e1 	ldr	x1, [sp, #64]
     3dc:	52800020 	mov	w0, #0x1                   	// #1
     3e0:	940019cd 	bl	6b14 <__GP11_TEE_OpenPersistentObject>
     3e4:	b9002be0 	str	w0, [sp, #40]
/root/Desktop/aes-web/SaveStorage/ta/secure_storage_ta.c:143
     3e8:	b9402be0 	ldr	w0, [sp, #40]
     3ec:	7100001f 	cmp	w0, #0x0
     3f0:	540000e0 	b.eq	40c <read_raw_object+0x120>  // b.none
/root/Desktop/aes-web/SaveStorage/ta/secure_storage_ta.c:144
     3f4:	f94023e0 	ldr	x0, [sp, #64]
     3f8:	940012f4 	bl	4fc8 <TEE_Free>
/root/Desktop/aes-web/SaveStorage/ta/secure_storage_ta.c:145
     3fc:	f9402be0 	ldr	x0, [sp, #80]
     400:	940012f2 	bl	4fc8 <TEE_Free>
/root/Desktop/aes-web/SaveStorage/ta/secure_storage_ta.c:146
     404:	b9402be0 	ldr	w0, [sp, #40]
     408:	1400003c 	b	4f8 <read_raw_object+0x20c>
/root/Desktop/aes-web/SaveStorage/ta/secure_storage_ta.c:149
     40c:	f9401be0 	ldr	x0, [sp, #48]
     410:	910163e1 	add	x1, sp, #0x58
     414:	940014b5 	bl	56e8 <__GP11_TEE_GetObjectInfo1>
     418:	b9002be0 	str	w0, [sp, #40]
/root/Desktop/aes-web/SaveStorage/ta/secure_storage_ta.c:150
     41c:	b9402be0 	ldr	w0, [sp, #40]
     420:	7100001f 	cmp	w0, #0x0
     424:	54000561 	b.ne	4d0 <read_raw_object+0x1e4>  // b.any
/root/Desktop/aes-web/SaveStorage/ta/secure_storage_ta.c:154
     428:	b9406be0 	ldr	w0, [sp, #104]
     42c:	2a0003e0 	mov	w0, w0
     430:	f94027e1 	ldr	x1, [sp, #72]
     434:	eb00003f 	cmp	x1, x0
     438:	54000102 	b.cs	458 <read_raw_object+0x16c>  // b.hs, b.nlast
/root/Desktop/aes-web/SaveStorage/ta/secure_storage_ta.c:155
     43c:	f9400be0 	ldr	x0, [sp, #16]
     440:	91004000 	add	x0, x0, #0x10
     444:	b9406be1 	ldr	w1, [sp, #104]
     448:	b9000801 	str	w1, [x0, #8]
/root/Desktop/aes-web/SaveStorage/ta/secure_storage_ta.c:156
     44c:	129ffde0 	mov	w0, #0xffff0010            	// #-65520
     450:	b9002be0 	str	w0, [sp, #40]
/root/Desktop/aes-web/SaveStorage/ta/secure_storage_ta.c:157
     454:	14000022 	b	4dc <read_raw_object+0x1f0>
/root/Desktop/aes-web/SaveStorage/ta/secure_storage_ta.c:160
     458:	f9401be0 	ldr	x0, [sp, #48]
     45c:	b9406be1 	ldr	w1, [sp, #104]
     460:	910093e2 	add	x2, sp, #0x24
     464:	aa0203e3 	mov	x3, x2
     468:	2a0103e2 	mov	w2, w1
     46c:	f9402be1 	ldr	x1, [sp, #80]
     470:	94001c0e 	bl	74a8 <__GP11_TEE_ReadObjectData>
     474:	b9002be0 	str	w0, [sp, #40]
/root/Desktop/aes-web/SaveStorage/ta/secure_storage_ta.c:162
     478:	b9402be0 	ldr	w0, [sp, #40]
     47c:	7100001f 	cmp	w0, #0x0
     480:	54000101 	b.ne	4a0 <read_raw_object+0x1b4>  // b.any
/root/Desktop/aes-web/SaveStorage/ta/secure_storage_ta.c:163
     484:	f9400be0 	ldr	x0, [sp, #16]
     488:	91004000 	add	x0, x0, #0x10
     48c:	f9400000 	ldr	x0, [x0]
     490:	b94027e1 	ldr	w1, [sp, #36]
     494:	2a0103e2 	mov	w2, w1
     498:	f9402be1 	ldr	x1, [sp, #80]
     49c:	94001153 	bl	49e8 <__GP11_TEE_MemMove>
/root/Desktop/aes-web/SaveStorage/ta/secure_storage_ta.c:164
     4a0:	b9402be0 	ldr	w0, [sp, #40]
     4a4:	7100001f 	cmp	w0, #0x0
     4a8:	54000181 	b.ne	4d8 <read_raw_object+0x1ec>  // b.any
/root/Desktop/aes-web/SaveStorage/ta/secure_storage_ta.c:164 (discriminator 1)
     4ac:	b9406be1 	ldr	w1, [sp, #104]
     4b0:	b94027e0 	ldr	w0, [sp, #36]
     4b4:	6b00003f 	cmp	w1, w0
     4b8:	54000101 	b.ne	4d8 <read_raw_object+0x1ec>  // b.any
/root/Desktop/aes-web/SaveStorage/ta/secure_storage_ta.c:168
     4bc:	f9400be0 	ldr	x0, [sp, #16]
     4c0:	91004000 	add	x0, x0, #0x10
     4c4:	b94027e1 	ldr	w1, [sp, #36]
     4c8:	b9000801 	str	w1, [x0, #8]
     4cc:	14000004 	b	4dc <read_raw_object+0x1f0>
/root/Desktop/aes-web/SaveStorage/ta/secure_storage_ta.c:151
     4d0:	d503201f 	nop
     4d4:	14000002 	b	4dc <read_raw_object+0x1f0>
/root/Desktop/aes-web/SaveStorage/ta/secure_storage_ta.c:165
     4d8:	d503201f 	nop
/root/Desktop/aes-web/SaveStorage/ta/secure_storage_ta.c:170
     4dc:	f9401be0 	ldr	x0, [sp, #48]
     4e0:	940015f3 	bl	5cac <TEE_CloseObject>
/root/Desktop/aes-web/SaveStorage/ta/secure_storage_ta.c:171
     4e4:	f94023e0 	ldr	x0, [sp, #64]
     4e8:	940012b8 	bl	4fc8 <TEE_Free>
/root/Desktop/aes-web/SaveStorage/ta/secure_storage_ta.c:172
     4ec:	f9402be0 	ldr	x0, [sp, #80]
     4f0:	940012b6 	bl	4fc8 <TEE_Free>
/root/Desktop/aes-web/SaveStorage/ta/secure_storage_ta.c:173
     4f4:	b9402be0 	ldr	w0, [sp, #40]
/root/Desktop/aes-web/SaveStorage/ta/secure_storage_ta.c:174 (discriminator 1)
     4f8:	2a0003e1 	mov	w1, w0
     4fc:	90000100 	adrp	x0, 20000 <_DYNAMIC>
     500:	f9409800 	ldr	x0, [x0, #304]
     504:	f9403fe3 	ldr	x3, [sp, #120]
     508:	f9400002 	ldr	x2, [x0]
     50c:	eb020063 	subs	x3, x3, x2
     510:	d2800002 	mov	x2, #0x0                   	// #0
     514:	54000040 	b.eq	51c <read_raw_object+0x230>  // b.none
/root/Desktop/aes-web/SaveStorage/ta/secure_storage_ta.c:174
     518:	940000dc 	bl	888 <__stack_chk_fail>
     51c:	2a0103e0 	mov	w0, w1
     520:	a8c87bfd 	ldp	x29, x30, [sp], #128
     524:	d65f03c0 	ret

0000000000000528 <get_object_size>:
get_object_size():
/root/Desktop/aes-web/SaveStorage/ta/secure_storage_ta.c:177
     528:	a9b97bfd 	stp	x29, x30, [sp, #-112]!
     52c:	910003fd 	mov	x29, sp
     530:	b9001fe0 	str	w0, [sp, #28]
     534:	f9000be1 	str	x1, [sp, #16]
     538:	90000100 	adrp	x0, 20000 <_DYNAMIC>
     53c:	f9409800 	ldr	x0, [x0, #304]
     540:	f9400001 	ldr	x1, [x0]
     544:	f90037e1 	str	x1, [sp, #104]
     548:	d2800001 	mov	x1, #0x0                   	// #0
/root/Desktop/aes-web/SaveStorage/ta/secure_storage_ta.c:178
     54c:	52800ca0 	mov	w0, #0x65                  	// #101
     550:	b9002be0 	str	w0, [sp, #40]
/root/Desktop/aes-web/SaveStorage/ta/secure_storage_ta.c:189
     554:	b9401fe1 	ldr	w1, [sp, #28]
     558:	b9402be0 	ldr	w0, [sp, #40]
     55c:	6b00003f 	cmp	w1, w0
     560:	54000060 	b.eq	56c <get_object_size+0x44>  // b.none
/root/Desktop/aes-web/SaveStorage/ta/secure_storage_ta.c:190
     564:	129fff20 	mov	w0, #0xffff0006            	// #-65530
     568:	14000045 	b	67c <get_object_size+0x154>
/root/Desktop/aes-web/SaveStorage/ta/secure_storage_ta.c:192
     56c:	f9400be0 	ldr	x0, [sp, #16]
     570:	b9400800 	ldr	w0, [x0, #8]
     574:	2a0003e0 	mov	w0, w0
     578:	f9001fe0 	str	x0, [sp, #56]
/root/Desktop/aes-web/SaveStorage/ta/secure_storage_ta.c:193
     57c:	f9401fe0 	ldr	x0, [sp, #56]
     580:	52800001 	mov	w1, #0x0                   	// #0
     584:	94001230 	bl	4e44 <__GP11_TEE_Malloc>
     588:	f90023e0 	str	x0, [sp, #64]
/root/Desktop/aes-web/SaveStorage/ta/secure_storage_ta.c:194
     58c:	f94023e0 	ldr	x0, [sp, #64]
     590:	f100001f 	cmp	x0, #0x0
     594:	54000061 	b.ne	5a0 <get_object_size+0x78>  // b.any
/root/Desktop/aes-web/SaveStorage/ta/secure_storage_ta.c:195
     598:	129ffe60 	mov	w0, #0xffff000c            	// #-65524
     59c:	14000038 	b	67c <get_object_size+0x154>
/root/Desktop/aes-web/SaveStorage/ta/secure_storage_ta.c:197
     5a0:	f9400be0 	ldr	x0, [sp, #16]
     5a4:	f9400000 	ldr	x0, [x0]
     5a8:	f9401fe1 	ldr	x1, [sp, #56]
     5ac:	2a0103e2 	mov	w2, w1
     5b0:	aa0003e1 	mov	x1, x0
     5b4:	f94023e0 	ldr	x0, [sp, #64]
     5b8:	9400110c 	bl	49e8 <__GP11_TEE_MemMove>
/root/Desktop/aes-web/SaveStorage/ta/secure_storage_ta.c:199
     5bc:	f9401fe0 	ldr	x0, [sp, #56]
     5c0:	2a0003e1 	mov	w1, w0
     5c4:	9100c3e0 	add	x0, sp, #0x30
     5c8:	aa0003e4 	mov	x4, x0
     5cc:	52800223 	mov	w3, #0x11                  	// #17
     5d0:	2a0103e2 	mov	w2, w1
     5d4:	f94023e1 	ldr	x1, [sp, #64]
     5d8:	52800020 	mov	w0, #0x1                   	// #1
     5dc:	9400194e 	bl	6b14 <__GP11_TEE_OpenPersistentObject>
     5e0:	b9002fe0 	str	w0, [sp, #44]
/root/Desktop/aes-web/SaveStorage/ta/secure_storage_ta.c:204
     5e4:	b9402fe0 	ldr	w0, [sp, #44]
     5e8:	7100001f 	cmp	w0, #0x0
     5ec:	540000a0 	b.eq	600 <get_object_size+0xd8>  // b.none
/root/Desktop/aes-web/SaveStorage/ta/secure_storage_ta.c:205
     5f0:	f94023e0 	ldr	x0, [sp, #64]
     5f4:	94001275 	bl	4fc8 <TEE_Free>
/root/Desktop/aes-web/SaveStorage/ta/secure_storage_ta.c:206
     5f8:	b9402fe0 	ldr	w0, [sp, #44]
     5fc:	14000020 	b	67c <get_object_size+0x154>
/root/Desktop/aes-web/SaveStorage/ta/secure_storage_ta.c:209
     600:	f9401be0 	ldr	x0, [sp, #48]
     604:	910123e1 	add	x1, sp, #0x48
     608:	94001438 	bl	56e8 <__GP11_TEE_GetObjectInfo1>
     60c:	b9002fe0 	str	w0, [sp, #44]
/root/Desktop/aes-web/SaveStorage/ta/secure_storage_ta.c:210
     610:	b9402fe0 	ldr	w0, [sp, #44]
     614:	7100001f 	cmp	w0, #0x0
     618:	540000e0 	b.eq	634 <get_object_size+0x10c>  // b.none
/root/Desktop/aes-web/SaveStorage/ta/secure_storage_ta.c:211
     61c:	f94023e0 	ldr	x0, [sp, #64]
     620:	9400126a 	bl	4fc8 <TEE_Free>
/root/Desktop/aes-web/SaveStorage/ta/secure_storage_ta.c:212
     624:	f9401be0 	ldr	x0, [sp, #48]
     628:	940015a1 	bl	5cac <TEE_CloseObject>
/root/Desktop/aes-web/SaveStorage/ta/secure_storage_ta.c:213
     62c:	b9402fe0 	ldr	w0, [sp, #44]
     630:	14000013 	b	67c <get_object_size+0x154>
/root/Desktop/aes-web/SaveStorage/ta/secure_storage_ta.c:216
     634:	f9400be0 	ldr	x0, [sp, #16]
     638:	91004000 	add	x0, x0, #0x10
     63c:	52800081 	mov	w1, #0x4                   	// #4
     640:	b9000801 	str	w1, [x0, #8]
/root/Desktop/aes-web/SaveStorage/ta/secure_storage_ta.c:217
     644:	f9400be0 	ldr	x0, [sp, #16]
     648:	91004000 	add	x0, x0, #0x10
     64c:	f9400003 	ldr	x3, [x0]
     650:	910123e0 	add	x0, sp, #0x48
     654:	91004000 	add	x0, x0, #0x10
     658:	52800082 	mov	w2, #0x4                   	// #4
     65c:	aa0003e1 	mov	x1, x0
     660:	aa0303e0 	mov	x0, x3
     664:	940010e1 	bl	49e8 <__GP11_TEE_MemMove>
/root/Desktop/aes-web/SaveStorage/ta/secure_storage_ta.c:219
     668:	f94023e0 	ldr	x0, [sp, #64]
     66c:	94001257 	bl	4fc8 <TEE_Free>
/root/Desktop/aes-web/SaveStorage/ta/secure_storage_ta.c:220
     670:	f9401be0 	ldr	x0, [sp, #48]
     674:	9400158e 	bl	5cac <TEE_CloseObject>
/root/Desktop/aes-web/SaveStorage/ta/secure_storage_ta.c:221
     678:	b9402fe0 	ldr	w0, [sp, #44]
/root/Desktop/aes-web/SaveStorage/ta/secure_storage_ta.c:222 (discriminator 1)
     67c:	2a0003e1 	mov	w1, w0
     680:	90000100 	adrp	x0, 20000 <_DYNAMIC>
     684:	f9409800 	ldr	x0, [x0, #304]
     688:	f94037e3 	ldr	x3, [sp, #104]
     68c:	f9400002 	ldr	x2, [x0]
     690:	eb020063 	subs	x3, x3, x2
     694:	d2800002 	mov	x2, #0x0                   	// #0
     698:	54000040 	b.eq	6a0 <get_object_size+0x178>  // b.none
/root/Desktop/aes-web/SaveStorage/ta/secure_storage_ta.c:222
     69c:	9400007b 	bl	888 <__stack_chk_fail>
     6a0:	2a0103e0 	mov	w0, w1
     6a4:	a8c77bfd 	ldp	x29, x30, [sp], #112
     6a8:	d65f03c0 	ret

00000000000006ac <TA_CreateEntryPoint>:
TA_CreateEntryPoint():
/root/Desktop/aes-web/SaveStorage/ta/secure_storage_ta.c:226
     6ac:	52800000 	mov	w0, #0x0                   	// #0
/root/Desktop/aes-web/SaveStorage/ta/secure_storage_ta.c:227
     6b0:	d65f03c0 	ret

00000000000006b4 <TA_DestroyEntryPoint>:
TA_DestroyEntryPoint():
/root/Desktop/aes-web/SaveStorage/ta/secure_storage_ta.c:232
     6b4:	d503201f 	nop
     6b8:	d65f03c0 	ret

00000000000006bc <__GP11_TA_OpenSessionEntryPoint>:
__GP11_TA_OpenSessionEntryPoint():
/root/Desktop/aes-web/SaveStorage/ta/secure_storage_ta.c:237
     6bc:	d10083ff 	sub	sp, sp, #0x20
     6c0:	b9001fe0 	str	w0, [sp, #28]
     6c4:	f9000be1 	str	x1, [sp, #16]
     6c8:	f90007e2 	str	x2, [sp, #8]
/root/Desktop/aes-web/SaveStorage/ta/secure_storage_ta.c:238
     6cc:	52800000 	mov	w0, #0x0                   	// #0
/root/Desktop/aes-web/SaveStorage/ta/secure_storage_ta.c:239
     6d0:	910083ff 	add	sp, sp, #0x20
     6d4:	d65f03c0 	ret

00000000000006d8 <TA_CloseSessionEntryPoint>:
TA_CloseSessionEntryPoint():
/root/Desktop/aes-web/SaveStorage/ta/secure_storage_ta.c:242
     6d8:	d10043ff 	sub	sp, sp, #0x10
     6dc:	f90007e0 	str	x0, [sp, #8]
/root/Desktop/aes-web/SaveStorage/ta/secure_storage_ta.c:244
     6e0:	d503201f 	nop
     6e4:	910043ff 	add	sp, sp, #0x10
     6e8:	d65f03c0 	ret

00000000000006ec <__GP11_TA_InvokeCommandEntryPoint>:
__GP11_TA_InvokeCommandEntryPoint():
/root/Desktop/aes-web/SaveStorage/ta/secure_storage_ta.c:250
     6ec:	a9bd7bfd 	stp	x29, x30, [sp, #-48]!
     6f0:	910003fd 	mov	x29, sp
     6f4:	f90017e0 	str	x0, [sp, #40]
     6f8:	b90027e1 	str	w1, [sp, #36]
     6fc:	b90023e2 	str	w2, [sp, #32]
     700:	f9000fe3 	str	x3, [sp, #24]
/root/Desktop/aes-web/SaveStorage/ta/secure_storage_ta.c:251
     704:	b94027e0 	ldr	w0, [sp, #36]
     708:	71000c1f 	cmp	w0, #0x3
     70c:	54000380 	b.eq	77c <__GP11_TA_InvokeCommandEntryPoint+0x90>  // b.none
     710:	b94027e0 	ldr	w0, [sp, #36]
     714:	71000c1f 	cmp	w0, #0x3
     718:	540003a8 	b.hi	78c <__GP11_TA_InvokeCommandEntryPoint+0xa0>  // b.pmore
     71c:	b94027e0 	ldr	w0, [sp, #36]
     720:	7100081f 	cmp	w0, #0x2
     724:	54000240 	b.eq	76c <__GP11_TA_InvokeCommandEntryPoint+0x80>  // b.none
     728:	b94027e0 	ldr	w0, [sp, #36]
     72c:	7100081f 	cmp	w0, #0x2
     730:	540002e8 	b.hi	78c <__GP11_TA_InvokeCommandEntryPoint+0xa0>  // b.pmore
     734:	b94027e0 	ldr	w0, [sp, #36]
     738:	7100001f 	cmp	w0, #0x0
     73c:	54000100 	b.eq	75c <__GP11_TA_InvokeCommandEntryPoint+0x70>  // b.none
     740:	b94027e0 	ldr	w0, [sp, #36]
     744:	7100041f 	cmp	w0, #0x1
     748:	54000221 	b.ne	78c <__GP11_TA_InvokeCommandEntryPoint+0xa0>  // b.any
/root/Desktop/aes-web/SaveStorage/ta/secure_storage_ta.c:253
     74c:	f9400fe1 	ldr	x1, [sp, #24]
     750:	b94023e0 	ldr	w0, [sp, #32]
     754:	97fffe72 	bl	11c <create_raw_object>
     758:	14000017 	b	7b4 <__GP11_TA_InvokeCommandEntryPoint+0xc8>
/root/Desktop/aes-web/SaveStorage/ta/secure_storage_ta.c:255
     75c:	f9400fe1 	ldr	x1, [sp, #24]
     760:	b94023e0 	ldr	w0, [sp, #32]
     764:	97fffee2 	bl	2ec <read_raw_object>
     768:	14000013 	b	7b4 <__GP11_TA_InvokeCommandEntryPoint+0xc8>
/root/Desktop/aes-web/SaveStorage/ta/secure_storage_ta.c:257
     76c:	f9400fe1 	ldr	x1, [sp, #24]
     770:	b94023e0 	ldr	w0, [sp, #32]
     774:	97fffe23 	bl	0 <delete_object>
     778:	1400000f 	b	7b4 <__GP11_TA_InvokeCommandEntryPoint+0xc8>
/root/Desktop/aes-web/SaveStorage/ta/secure_storage_ta.c:259
     77c:	f9400fe1 	ldr	x1, [sp, #24]
     780:	b94023e0 	ldr	w0, [sp, #32]
     784:	97ffff69 	bl	528 <get_object_size>
     788:	1400000b 	b	7b4 <__GP11_TA_InvokeCommandEntryPoint+0xc8>
/root/Desktop/aes-web/SaveStorage/ta/secure_storage_ta.c:261
     78c:	b94027e5 	ldr	w5, [sp, #36]
     790:	b00000e0 	adrp	x0, 1d000 <__text_end+0x2c18>
     794:	91220004 	add	x4, x0, #0x880
     798:	52800023 	mov	w3, #0x1                   	// #1
     79c:	52800022 	mov	w2, #0x1                   	// #1
     7a0:	528020a1 	mov	w1, #0x105                 	// #261
     7a4:	b00000e0 	adrp	x0, 1d000 <__text_end+0x2c18>
     7a8:	9122a000 	add	x0, x0, #0x8a8
     7ac:	9400009e 	bl	a24 <trace_printf>
/root/Desktop/aes-web/SaveStorage/ta/secure_storage_ta.c:262
     7b0:	129ffea0 	mov	w0, #0xffff000a            	// #-65526
/root/Desktop/aes-web/SaveStorage/ta/secure_storage_ta.c:264
     7b4:	a8c37bfd 	ldp	x29, x30, [sp], #48
     7b8:	d65f03c0 	ret

00000000000007bc <__ta_entry>:
__ta_entry():
/root/export-ta_arm64/src/user_ta_header.c:51
     7bc:	a9bb7bfd 	stp	x29, x30, [sp, #-80]!
     7c0:	910003fd 	mov	x29, sp
     7c4:	f90017e0 	str	x0, [sp, #40]
     7c8:	f90013e1 	str	x1, [sp, #32]
     7cc:	f9000fe2 	str	x2, [sp, #24]
     7d0:	f9000be3 	str	x3, [sp, #16]
     7d4:	90000100 	adrp	x0, 20000 <_DYNAMIC>
     7d8:	f9409800 	ldr	x0, [x0, #304]
     7dc:	f9400001 	ldr	x1, [x0]
     7e0:	f90027e1 	str	x1, [sp, #72]
     7e4:	d2800001 	mov	x1, #0x0                   	// #0
/root/export-ta_arm64/src/user_ta_header.c:53
     7e8:	52bfffe0 	mov	w0, #0xffff0000            	// #-65536
     7ec:	b9003fe0 	str	w0, [sp, #60]
/root/export-ta_arm64/src/user_ta_header.c:70
     7f0:	f9400be3 	ldr	x3, [sp, #16]
     7f4:	f9400fe2 	ldr	x2, [sp, #24]
     7f8:	f94013e1 	ldr	x1, [sp, #32]
     7fc:	f94017e0 	ldr	x0, [sp, #40]
     800:	94002202 	bl	9008 <__utee_entry>
     804:	b9003fe0 	str	w0, [sp, #60]
/root/export-ta_arm64/src/user_ta_header.c:81
     808:	b9403fe0 	ldr	w0, [sp, #60]
     80c:	94002329 	bl	94b0 <_utee_return>

0000000000000810 <tahead_get_trace_level>:
tahead_get_trace_level():
/root/export-ta_arm64/src/user_ta_header.c:192
     810:	52800040 	mov	w0, #0x2                   	// #2
/root/export-ta_arm64/src/user_ta_header.c:193
     814:	d65f03c0 	ret

0000000000000818 <TA_OpenSessionEntryPoint>:
TA_OpenSessionEntryPoint():
/root/export-ta_arm64/src/user_ta_header.c:202
     818:	a9bd7bfd 	stp	x29, x30, [sp, #-48]!
     81c:	910003fd 	mov	x29, sp
     820:	b9002fe0 	str	w0, [sp, #44]
     824:	f90013e1 	str	x1, [sp, #32]
     828:	f9000fe2 	str	x2, [sp, #24]
/root/export-ta_arm64/src/user_ta_header.c:203
     82c:	90000100 	adrp	x0, 20000 <_DYNAMIC>
     830:	f940cc03 	ldr	x3, [x0, #408]
     834:	f9400fe2 	ldr	x2, [sp, #24]
     838:	f94013e1 	ldr	x1, [sp, #32]
     83c:	b9402fe0 	ldr	w0, [sp, #44]
     840:	940022b3 	bl	930c <__ta_open_sess>
/root/export-ta_arm64/src/user_ta_header.c:205
     844:	a8c37bfd 	ldp	x29, x30, [sp], #48
     848:	d65f03c0 	ret

000000000000084c <TA_InvokeCommandEntryPoint>:
TA_InvokeCommandEntryPoint():
/root/export-ta_arm64/src/user_ta_header.c:210
     84c:	a9bd7bfd 	stp	x29, x30, [sp, #-48]!
     850:	910003fd 	mov	x29, sp
     854:	f90017e0 	str	x0, [sp, #40]
     858:	b90027e1 	str	w1, [sp, #36]
     85c:	b90023e2 	str	w2, [sp, #32]
     860:	f9000fe3 	str	x3, [sp, #24]
/root/export-ta_arm64/src/user_ta_header.c:211
     864:	90000100 	adrp	x0, 20000 <_DYNAMIC>
     868:	f940c004 	ldr	x4, [x0, #384]
     86c:	f9400fe3 	ldr	x3, [sp, #24]
     870:	b94023e2 	ldr	w2, [sp, #32]
     874:	b94027e1 	ldr	w1, [sp, #36]
     878:	f94017e0 	ldr	x0, [sp, #40]
     87c:	940022d6 	bl	93d4 <__ta_invoke_cmd>
/root/export-ta_arm64/src/user_ta_header.c:213
     880:	a8c37bfd 	ldp	x29, x30, [sp], #48
     884:	d65f03c0 	ret

0000000000000888 <__stack_chk_fail>:
__stack_chk_fail():
/home/ubuntu/phytium-linux-buildroot/output/build/phytium-optee-v3.2/optee_os/lib/libutils/isoc/stack_check.c:24
     888:	a9bf7bfd 	stp	x29, x30, [sp, #-16]!
     88c:	910003fd 	mov	x29, sp
/home/ubuntu/phytium-linux-buildroot/output/build/phytium-optee-v3.2/optee_os/lib/libutils/isoc/stack_check.c:25
     890:	b00000e0 	adrp	x0, 1d000 <__text_end+0x2c18>
     894:	912a0004 	add	x4, x0, #0xa80
     898:	52800023 	mov	w3, #0x1                   	// #1
     89c:	52800022 	mov	w2, #0x1                   	// #1
     8a0:	52800001 	mov	w1, #0x0                   	// #0
     8a4:	d2800000 	mov	x0, #0x0                   	// #0
     8a8:	9400005f 	bl	a24 <trace_printf>
/home/ubuntu/phytium-linux-buildroot/output/build/phytium-optee-v3.2/optee_os/lib/libutils/isoc/stack_check.c:27 (discriminator 1)
     8ac:	1299fe00 	mov	w0, #0xffff300f            	// #-53233
     8b0:	940022fd 	bl	94a4 <_utee_panic>
     8b4:	17fffffe 	b	8ac <__stack_chk_fail+0x24>

00000000000008b8 <trace_set_level>:
trace_set_level():
/home/ubuntu/phytium-linux-buildroot/output/build/phytium-optee-v3.2/optee_os/lib/libutils/ext/trace.c:25
     8b8:	d10043ff 	sub	sp, sp, #0x10
     8bc:	b9000fe0 	str	w0, [sp, #12]
/home/ubuntu/phytium-linux-buildroot/output/build/phytium-optee-v3.2/optee_os/lib/libutils/ext/trace.c:26
     8c0:	b9400fe0 	ldr	w0, [sp, #12]
     8c4:	7100001f 	cmp	w0, #0x0
     8c8:	5400012b 	b.lt	8ec <trace_set_level+0x34>  // b.tstop
/home/ubuntu/phytium-linux-buildroot/output/build/phytium-optee-v3.2/optee_os/lib/libutils/ext/trace.c:26 (discriminator 1)
     8cc:	b9400fe0 	ldr	w0, [sp, #12]
     8d0:	7100101f 	cmp	w0, #0x4
     8d4:	540000cc 	b.gt	8ec <trace_set_level+0x34>
/home/ubuntu/phytium-linux-buildroot/output/build/phytium-optee-v3.2/optee_os/lib/libutils/ext/trace.c:27
     8d8:	90000100 	adrp	x0, 20000 <_DYNAMIC>
     8dc:	f940a800 	ldr	x0, [x0, #336]
     8e0:	b9400fe1 	ldr	w1, [sp, #12]
     8e4:	b9000001 	str	w1, [x0]
     8e8:	14000006 	b	900 <trace_set_level+0x48>
/home/ubuntu/phytium-linux-buildroot/output/build/phytium-optee-v3.2/optee_os/lib/libutils/ext/trace.c:29
     8ec:	90000100 	adrp	x0, 20000 <_DYNAMIC>
     8f0:	f940a800 	ldr	x0, [x0, #336]
     8f4:	52800081 	mov	w1, #0x4                   	// #4
     8f8:	b9000001 	str	w1, [x0]
/home/ubuntu/phytium-linux-buildroot/output/build/phytium-optee-v3.2/optee_os/lib/libutils/ext/trace.c:30
     8fc:	d503201f 	nop
     900:	d503201f 	nop
     904:	910043ff 	add	sp, sp, #0x10
     908:	d65f03c0 	ret

000000000000090c <trace_get_level>:
trace_get_level():
/home/ubuntu/phytium-linux-buildroot/output/build/phytium-optee-v3.2/optee_os/lib/libutils/ext/trace.c:34
     90c:	90000100 	adrp	x0, 20000 <_DYNAMIC>
     910:	f940a800 	ldr	x0, [x0, #336]
     914:	b9400000 	ldr	w0, [x0]
/home/ubuntu/phytium-linux-buildroot/output/build/phytium-optee-v3.2/optee_os/lib/libutils/ext/trace.c:35
     918:	d65f03c0 	ret

000000000000091c <trace_level_to_string>:
trace_level_to_string():
/home/ubuntu/phytium-linux-buildroot/output/build/phytium-optee-v3.2/optee_os/lib/libutils/ext/trace.c:38
     91c:	d10083ff 	sub	sp, sp, #0x20
     920:	b9000fe0 	str	w0, [sp, #12]
     924:	39002fe1 	strb	w1, [sp, #11]
/home/ubuntu/phytium-linux-buildroot/output/build/phytium-optee-v3.2/optee_os/lib/libutils/ext/trace.c:47
     928:	b9001fff 	str	wzr, [sp, #28]
/home/ubuntu/phytium-linux-buildroot/output/build/phytium-optee-v3.2/optee_os/lib/libutils/ext/trace.c:49
     92c:	39402fe0 	ldrb	w0, [sp, #11]
     930:	52000000 	eor	w0, w0, #0x1
     934:	12001c00 	and	w0, w0, #0xff
     938:	7100001f 	cmp	w0, #0x0
     93c:	54000060 	b.eq	948 <trace_level_to_string+0x2c>  // b.none
/home/ubuntu/phytium-linux-buildroot/output/build/phytium-optee-v3.2/optee_os/lib/libutils/ext/trace.c:50
     940:	528009a0 	mov	w0, #0x4d                  	// #77
     944:	1400000d 	b	978 <trace_level_to_string+0x5c>
/home/ubuntu/phytium-linux-buildroot/output/build/phytium-optee-v3.2/optee_os/lib/libutils/ext/trace.c:52
     948:	b9400fe0 	ldr	w0, [sp, #12]
     94c:	7100001f 	cmp	w0, #0x0
     950:	540000cb 	b.lt	968 <trace_level_to_string+0x4c>  // b.tstop
/home/ubuntu/phytium-linux-buildroot/output/build/phytium-optee-v3.2/optee_os/lib/libutils/ext/trace.c:52 (discriminator 1)
     954:	b9400fe0 	ldr	w0, [sp, #12]
     958:	7100101f 	cmp	w0, #0x4
     95c:	5400006c 	b.gt	968 <trace_level_to_string+0x4c>
/home/ubuntu/phytium-linux-buildroot/output/build/phytium-optee-v3.2/optee_os/lib/libutils/ext/trace.c:53
     960:	b9400fe0 	ldr	w0, [sp, #12]
     964:	b9001fe0 	str	w0, [sp, #28]
/home/ubuntu/phytium-linux-buildroot/output/build/phytium-optee-v3.2/optee_os/lib/libutils/ext/trace.c:55
     968:	b00000e0 	adrp	x0, 1d000 <__text_end+0x2c18>
     96c:	912b2001 	add	x1, x0, #0xac8
     970:	b9801fe0 	ldrsw	x0, [sp, #28]
     974:	38606820 	ldrb	w0, [x1, x0]
/home/ubuntu/phytium-linux-buildroot/output/build/phytium-optee-v3.2/optee_os/lib/libutils/ext/trace.c:56
     978:	910083ff 	add	sp, sp, #0x20
     97c:	d65f03c0 	ret

0000000000000980 <print_thread_id>:
print_thread_id():
/home/ubuntu/phytium-linux-buildroot/output/build/phytium-optee-v3.2/optee_os/lib/libutils/ext/trace.c:59
     980:	a9bd7bfd 	stp	x29, x30, [sp, #-48]!
     984:	910003fd 	mov	x29, sp
     988:	f9000fe0 	str	x0, [sp, #24]
     98c:	f9000be1 	str	x1, [sp, #16]
/home/ubuntu/phytium-linux-buildroot/output/build/phytium-optee-v3.2/optee_os/lib/libutils/ext/trace.c:65
     990:	52800020 	mov	w0, #0x1                   	// #1
     994:	b9002be0 	str	w0, [sp, #40]
/home/ubuntu/phytium-linux-buildroot/output/build/phytium-optee-v3.2/optee_os/lib/libutils/ext/trace.c:67
     998:	94000a09 	bl	31bc <trace_ext_get_thread_id>
     99c:	b9002fe0 	str	w0, [sp, #44]
/home/ubuntu/phytium-linux-buildroot/output/build/phytium-optee-v3.2/optee_os/lib/libutils/ext/trace.c:69
     9a0:	b9402fe0 	ldr	w0, [sp, #44]
     9a4:	7100001f 	cmp	w0, #0x0
     9a8:	5400012b 	b.lt	9cc <print_thread_id+0x4c>  // b.tstop
/home/ubuntu/phytium-linux-buildroot/output/build/phytium-optee-v3.2/optee_os/lib/libutils/ext/trace.c:70
     9ac:	b9402fe4 	ldr	w4, [sp, #44]
     9b0:	b9402be3 	ldr	w3, [sp, #40]
     9b4:	b00000e0 	adrp	x0, 1d000 <__text_end+0x2c18>
     9b8:	912a6002 	add	x2, x0, #0xa98
     9bc:	f9400be1 	ldr	x1, [sp, #16]
     9c0:	f9400fe0 	ldr	x0, [sp, #24]
     9c4:	94000150 	bl	f04 <snprintk>
     9c8:	14000009 	b	9ec <print_thread_id+0x6c>
/home/ubuntu/phytium-linux-buildroot/output/build/phytium-optee-v3.2/optee_os/lib/libutils/ext/trace.c:72
     9cc:	b00000e0 	adrp	x0, 1d000 <__text_end+0x2c18>
     9d0:	912a8004 	add	x4, x0, #0xaa0
     9d4:	b9402be3 	ldr	w3, [sp, #40]
     9d8:	b00000e0 	adrp	x0, 1d000 <__text_end+0x2c18>
     9dc:	912aa002 	add	x2, x0, #0xaa8
     9e0:	f9400be1 	ldr	x1, [sp, #16]
     9e4:	f9400fe0 	ldr	x0, [sp, #24]
     9e8:	94000147 	bl	f04 <snprintk>
/home/ubuntu/phytium-linux-buildroot/output/build/phytium-optee-v3.2/optee_os/lib/libutils/ext/trace.c:73
     9ec:	a8c37bfd 	ldp	x29, x30, [sp], #48
     9f0:	d65f03c0 	ret

00000000000009f4 <print_core_id>:
print_core_id():
/home/ubuntu/phytium-linux-buildroot/output/build/phytium-optee-v3.2/optee_os/lib/libutils/ext/trace.c:107
     9f4:	d10043ff 	sub	sp, sp, #0x10
     9f8:	f90007e0 	str	x0, [sp, #8]
     9fc:	f90003e1 	str	x1, [sp]
/home/ubuntu/phytium-linux-buildroot/output/build/phytium-optee-v3.2/optee_os/lib/libutils/ext/trace.c:108
     a00:	52800000 	mov	w0, #0x0                   	// #0
/home/ubuntu/phytium-linux-buildroot/output/build/phytium-optee-v3.2/optee_os/lib/libutils/ext/trace.c:109
     a04:	910043ff 	add	sp, sp, #0x10
     a08:	d65f03c0 	ret

0000000000000a0c <print_guest_id>:
print_guest_id():
/home/ubuntu/phytium-linux-buildroot/output/build/phytium-optee-v3.2/optee_os/lib/libutils/ext/trace.c:112
     a0c:	d10043ff 	sub	sp, sp, #0x10
     a10:	f90007e0 	str	x0, [sp, #8]
     a14:	f90003e1 	str	x1, [sp]
/home/ubuntu/phytium-linux-buildroot/output/build/phytium-optee-v3.2/optee_os/lib/libutils/ext/trace.c:113
     a18:	52800000 	mov	w0, #0x0                   	// #0
/home/ubuntu/phytium-linux-buildroot/output/build/phytium-optee-v3.2/optee_os/lib/libutils/ext/trace.c:114
     a1c:	910043ff 	add	sp, sp, #0x10
     a20:	d65f03c0 	ret

0000000000000a24 <trace_printf>:
trace_printf():
/home/ubuntu/phytium-linux-buildroot/output/build/phytium-optee-v3.2/optee_os/lib/libutils/ext/trace.c:120
     a24:	a9ae7bfd 	stp	x29, x30, [sp, #-288]!
     a28:	910003fd 	mov	x29, sp
     a2c:	f90027e0 	str	x0, [sp, #72]
     a30:	b90047e1 	str	w1, [sp, #68]
     a34:	b90043e2 	str	w2, [sp, #64]
     a38:	3900ffe3 	strb	w3, [sp, #63]
     a3c:	f9001be4 	str	x4, [sp, #48]
     a40:	f90087e5 	str	x5, [sp, #264]
     a44:	f9008be6 	str	x6, [sp, #272]
     a48:	f9008fe7 	str	x7, [sp, #280]
     a4c:	3d8023e0 	str	q0, [sp, #128]
     a50:	3d8027e1 	str	q1, [sp, #144]
     a54:	3d802be2 	str	q2, [sp, #160]
     a58:	3d802fe3 	str	q3, [sp, #176]
     a5c:	3d8033e4 	str	q4, [sp, #192]
     a60:	3d8037e5 	str	q5, [sp, #208]
     a64:	3d803be6 	str	q6, [sp, #224]
     a68:	3d803fe7 	str	q7, [sp, #240]
     a6c:	90000100 	adrp	x0, 20000 <_DYNAMIC>
     a70:	f9409800 	ldr	x0, [x0, #304]
     a74:	f9400001 	ldr	x1, [x0]
     a78:	f9003fe1 	str	x1, [sp, #120]
     a7c:	d2800001 	mov	x1, #0x0                   	// #0
/home/ubuntu/phytium-linux-buildroot/output/build/phytium-optee-v3.2/optee_os/lib/libutils/ext/trace.c:123
     a80:	910483e0 	add	x0, sp, #0x120
     a84:	f9002fe0 	str	x0, [sp, #88]
     a88:	910483e0 	add	x0, sp, #0x120
     a8c:	f90033e0 	str	x0, [sp, #96]
     a90:	910403e0 	add	x0, sp, #0x100
     a94:	f90037e0 	str	x0, [sp, #104]
     a98:	128002e0 	mov	w0, #0xffffffe8            	// #-24
     a9c:	b90073e0 	str	w0, [sp, #112]
     aa0:	12800fe0 	mov	w0, #0xffffff80            	// #-128
     aa4:	b90077e0 	str	w0, [sp, #116]
/home/ubuntu/phytium-linux-buildroot/output/build/phytium-optee-v3.2/optee_os/lib/libutils/ext/trace.c:124
     aa8:	f9402fe0 	ldr	x0, [sp, #88]
     aac:	f9000be0 	str	x0, [sp, #16]
     ab0:	f94033e0 	ldr	x0, [sp, #96]
     ab4:	f9000fe0 	str	x0, [sp, #24]
     ab8:	f94037e0 	ldr	x0, [sp, #104]
     abc:	f90013e0 	str	x0, [sp, #32]
     ac0:	f9403be0 	ldr	x0, [sp, #112]
     ac4:	f90017e0 	str	x0, [sp, #40]
     ac8:	910043e0 	add	x0, sp, #0x10
     acc:	aa0003e5 	mov	x5, x0
     ad0:	f9401be4 	ldr	x4, [sp, #48]
     ad4:	3940ffe3 	ldrb	w3, [sp, #63]
     ad8:	b94043e2 	ldr	w2, [sp, #64]
     adc:	b94047e1 	ldr	w1, [sp, #68]
     ae0:	f94027e0 	ldr	x0, [sp, #72]
     ae4:	9400000c 	bl	b14 <trace_vprintf>
/home/ubuntu/phytium-linux-buildroot/output/build/phytium-optee-v3.2/optee_os/lib/libutils/ext/trace.c:126
     ae8:	d503201f 	nop
     aec:	90000100 	adrp	x0, 20000 <_DYNAMIC>
     af0:	f9409800 	ldr	x0, [x0, #304]
     af4:	f9403fe1 	ldr	x1, [sp, #120]
     af8:	f9400002 	ldr	x2, [x0]
     afc:	eb020021 	subs	x1, x1, x2
     b00:	d2800002 	mov	x2, #0x0                   	// #0
     b04:	54000040 	b.eq	b0c <trace_printf+0xe8>  // b.none
     b08:	97ffff60 	bl	888 <__stack_chk_fail>
     b0c:	a8d27bfd 	ldp	x29, x30, [sp], #288
     b10:	d65f03c0 	ret

0000000000000b14 <trace_vprintf>:
trace_vprintf():
/home/ubuntu/phytium-linux-buildroot/output/build/phytium-optee-v3.2/optee_os/lib/libutils/ext/trace.c:129
     b14:	a9a87bfd 	stp	x29, x30, [sp, #-384]!
     b18:	910003fd 	mov	x29, sp
     b1c:	f9000bf3 	str	x19, [sp, #16]
     b20:	f9002fe0 	str	x0, [sp, #88]
     b24:	b90057e1 	str	w1, [sp, #84]
     b28:	b90053e2 	str	w2, [sp, #80]
     b2c:	39013fe3 	strb	w3, [sp, #79]
     b30:	f90023e4 	str	x4, [sp, #64]
     b34:	aa0503f3 	mov	x19, x5
     b38:	90000100 	adrp	x0, 20000 <_DYNAMIC>
     b3c:	f9409800 	ldr	x0, [x0, #304]
     b40:	f9400001 	ldr	x1, [x0]
     b44:	f900bfe1 	str	x1, [sp, #376]
     b48:	d2800001 	mov	x1, #0x0                   	// #0
/home/ubuntu/phytium-linux-buildroot/output/build/phytium-optee-v3.2/optee_os/lib/libutils/ext/trace.c:131
     b4c:	f9003bff 	str	xzr, [sp, #112]
/home/ubuntu/phytium-linux-buildroot/output/build/phytium-optee-v3.2/optee_os/lib/libutils/ext/trace.c:134
     b50:	39413fe0 	ldrb	w0, [sp, #79]
     b54:	7100001f 	cmp	w0, #0x0
     b58:	540000e0 	b.eq	b74 <trace_vprintf+0x60>  // b.none
/home/ubuntu/phytium-linux-buildroot/output/build/phytium-optee-v3.2/optee_os/lib/libutils/ext/trace.c:134 (discriminator 1)
     b5c:	90000100 	adrp	x0, 20000 <_DYNAMIC>
     b60:	f940a800 	ldr	x0, [x0, #336]
     b64:	b9400000 	ldr	w0, [x0]
     b68:	b94053e1 	ldr	w1, [sp, #80]
     b6c:	6b00003f 	cmp	w1, w0
     b70:	5400184c 	b.gt	e78 <trace_vprintf+0x364>
/home/ubuntu/phytium-linux-buildroot/output/build/phytium-optee-v3.2/optee_os/lib/libutils/ext/trace.c:139
     b74:	39413fe1 	ldrb	w1, [sp, #79]
     b78:	b94053e0 	ldr	w0, [sp, #80]
     b7c:	97ffff68 	bl	91c <trace_level_to_string>
     b80:	12001c00 	and	w0, w0, #0xff
/home/ubuntu/phytium-linux-buildroot/output/build/phytium-optee-v3.2/optee_os/lib/libutils/ext/trace.c:138
     b84:	9101e3e4 	add	x4, sp, #0x78
     b88:	2a0003e3 	mov	w3, w0
     b8c:	b00000e0 	adrp	x0, 1d000 <__text_end+0x2c18>
     b90:	912ac002 	add	x2, x0, #0xab0
     b94:	d2802001 	mov	x1, #0x100                 	// #256
     b98:	aa0403e0 	mov	x0, x4
     b9c:	940000da 	bl	f04 <snprintk>
     ba0:	b9006fe0 	str	w0, [sp, #108]
/home/ubuntu/phytium-linux-buildroot/output/build/phytium-optee-v3.2/optee_os/lib/libutils/ext/trace.c:140
     ba4:	b9406fe0 	ldr	w0, [sp, #108]
     ba8:	7100001f 	cmp	w0, #0x0
     bac:	540016ab 	b.lt	e80 <trace_vprintf+0x36c>  // b.tstop
/home/ubuntu/phytium-linux-buildroot/output/build/phytium-optee-v3.2/optee_os/lib/libutils/ext/trace.c:142
     bb0:	b9806fe0 	ldrsw	x0, [sp, #108]
     bb4:	f9403be1 	ldr	x1, [sp, #112]
     bb8:	8b000020 	add	x0, x1, x0
     bbc:	f9003be0 	str	x0, [sp, #112]
/home/ubuntu/phytium-linux-buildroot/output/build/phytium-optee-v3.2/optee_os/lib/libutils/ext/trace.c:145
     bc0:	9101e3e1 	add	x1, sp, #0x78
     bc4:	f9403be0 	ldr	x0, [sp, #112]
     bc8:	8b000024 	add	x4, x1, x0
     bcc:	d2802001 	mov	x1, #0x100                 	// #256
     bd0:	f9403be0 	ldr	x0, [sp, #112]
     bd4:	cb000021 	sub	x1, x1, x0
     bd8:	90000100 	adrp	x0, 20000 <_DYNAMIC>
     bdc:	f940b003 	ldr	x3, [x0, #352]
     be0:	b00000e0 	adrp	x0, 1d000 <__text_end+0x2c18>
     be4:	912ae002 	add	x2, x0, #0xab8
     be8:	aa0403e0 	mov	x0, x4
     bec:	940000c6 	bl	f04 <snprintk>
     bf0:	b9006fe0 	str	w0, [sp, #108]
/home/ubuntu/phytium-linux-buildroot/output/build/phytium-optee-v3.2/optee_os/lib/libutils/ext/trace.c:147
     bf4:	b9406fe0 	ldr	w0, [sp, #108]
     bf8:	7100001f 	cmp	w0, #0x0
     bfc:	5400146b 	b.lt	e88 <trace_vprintf+0x374>  // b.tstop
/home/ubuntu/phytium-linux-buildroot/output/build/phytium-optee-v3.2/optee_os/lib/libutils/ext/trace.c:149
     c00:	b9806fe0 	ldrsw	x0, [sp, #108]
     c04:	f9403be1 	ldr	x1, [sp, #112]
     c08:	8b000020 	add	x0, x1, x0
     c0c:	f9003be0 	str	x0, [sp, #112]
/home/ubuntu/phytium-linux-buildroot/output/build/phytium-optee-v3.2/optee_os/lib/libutils/ext/trace.c:151
     c10:	39413fe0 	ldrb	w0, [sp, #79]
     c14:	7100001f 	cmp	w0, #0x0
     c18:	54000a40 	b.eq	d60 <trace_vprintf+0x24c>  // b.none
/home/ubuntu/phytium-linux-buildroot/output/build/phytium-optee-v3.2/optee_os/lib/libutils/ext/trace.c:151 (discriminator 1)
     c1c:	b94053e0 	ldr	w0, [sp, #80]
     c20:	52800341 	mov	w1, #0x1a                  	// #26
     c24:	1ac02420 	lsr	w0, w1, w0
     c28:	12000000 	and	w0, w0, #0x1
     c2c:	7100001f 	cmp	w0, #0x0
     c30:	54000980 	b.eq	d60 <trace_vprintf+0x24c>  // b.none
/home/ubuntu/phytium-linux-buildroot/output/build/phytium-optee-v3.2/optee_os/lib/libutils/ext/trace.c:153
     c34:	9101e3e1 	add	x1, sp, #0x78
     c38:	f9403be0 	ldr	x0, [sp, #112]
     c3c:	8b000022 	add	x2, x1, x0
     c40:	d2802001 	mov	x1, #0x100                 	// #256
     c44:	f9403be0 	ldr	x0, [sp, #112]
     c48:	cb000020 	sub	x0, x1, x0
     c4c:	aa0003e1 	mov	x1, x0
     c50:	aa0203e0 	mov	x0, x2
     c54:	97ffff6e 	bl	a0c <print_guest_id>
     c58:	b9006fe0 	str	w0, [sp, #108]
/home/ubuntu/phytium-linux-buildroot/output/build/phytium-optee-v3.2/optee_os/lib/libutils/ext/trace.c:154
     c5c:	b9406fe0 	ldr	w0, [sp, #108]
     c60:	7100001f 	cmp	w0, #0x0
     c64:	5400116b 	b.lt	e90 <trace_vprintf+0x37c>  // b.tstop
/home/ubuntu/phytium-linux-buildroot/output/build/phytium-optee-v3.2/optee_os/lib/libutils/ext/trace.c:156
     c68:	b9806fe0 	ldrsw	x0, [sp, #108]
     c6c:	f9403be1 	ldr	x1, [sp, #112]
     c70:	8b000020 	add	x0, x1, x0
     c74:	f9003be0 	str	x0, [sp, #112]
/home/ubuntu/phytium-linux-buildroot/output/build/phytium-optee-v3.2/optee_os/lib/libutils/ext/trace.c:159
     c78:	9101e3e1 	add	x1, sp, #0x78
     c7c:	f9403be0 	ldr	x0, [sp, #112]
     c80:	8b000022 	add	x2, x1, x0
     c84:	d2802001 	mov	x1, #0x100                 	// #256
     c88:	f9403be0 	ldr	x0, [sp, #112]
     c8c:	cb000020 	sub	x0, x1, x0
     c90:	aa0003e1 	mov	x1, x0
     c94:	aa0203e0 	mov	x0, x2
     c98:	97ffff57 	bl	9f4 <print_core_id>
     c9c:	b9006fe0 	str	w0, [sp, #108]
/home/ubuntu/phytium-linux-buildroot/output/build/phytium-optee-v3.2/optee_os/lib/libutils/ext/trace.c:160
     ca0:	b9406fe0 	ldr	w0, [sp, #108]
     ca4:	7100001f 	cmp	w0, #0x0
     ca8:	54000f8b 	b.lt	e98 <trace_vprintf+0x384>  // b.tstop
/home/ubuntu/phytium-linux-buildroot/output/build/phytium-optee-v3.2/optee_os/lib/libutils/ext/trace.c:162
     cac:	b9806fe0 	ldrsw	x0, [sp, #108]
     cb0:	f9403be1 	ldr	x1, [sp, #112]
     cb4:	8b000020 	add	x0, x1, x0
     cb8:	f9003be0 	str	x0, [sp, #112]
/home/ubuntu/phytium-linux-buildroot/output/build/phytium-optee-v3.2/optee_os/lib/libutils/ext/trace.c:165
     cbc:	9101e3e1 	add	x1, sp, #0x78
     cc0:	f9403be0 	ldr	x0, [sp, #112]
     cc4:	8b000022 	add	x2, x1, x0
     cc8:	d2802001 	mov	x1, #0x100                 	// #256
     ccc:	f9403be0 	ldr	x0, [sp, #112]
     cd0:	cb000020 	sub	x0, x1, x0
     cd4:	aa0003e1 	mov	x1, x0
     cd8:	aa0203e0 	mov	x0, x2
     cdc:	97ffff29 	bl	980 <print_thread_id>
     ce0:	b9006fe0 	str	w0, [sp, #108]
/home/ubuntu/phytium-linux-buildroot/output/build/phytium-optee-v3.2/optee_os/lib/libutils/ext/trace.c:166
     ce4:	b9406fe0 	ldr	w0, [sp, #108]
     ce8:	7100001f 	cmp	w0, #0x0
     cec:	54000dab 	b.lt	ea0 <trace_vprintf+0x38c>  // b.tstop
/home/ubuntu/phytium-linux-buildroot/output/build/phytium-optee-v3.2/optee_os/lib/libutils/ext/trace.c:168
     cf0:	b9806fe0 	ldrsw	x0, [sp, #108]
     cf4:	f9403be1 	ldr	x1, [sp, #112]
     cf8:	8b000020 	add	x0, x1, x0
     cfc:	f9003be0 	str	x0, [sp, #112]
/home/ubuntu/phytium-linux-buildroot/output/build/phytium-optee-v3.2/optee_os/lib/libutils/ext/trace.c:170
     d00:	f9402fe0 	ldr	x0, [sp, #88]
     d04:	f100001f 	cmp	x0, #0x0
     d08:	54000440 	b.eq	d90 <trace_vprintf+0x27c>  // b.none
/home/ubuntu/phytium-linux-buildroot/output/build/phytium-optee-v3.2/optee_os/lib/libutils/ext/trace.c:171
     d0c:	9101e3e1 	add	x1, sp, #0x78
     d10:	f9403be0 	ldr	x0, [sp, #112]
     d14:	8b000025 	add	x5, x1, x0
     d18:	d2802001 	mov	x1, #0x100                 	// #256
     d1c:	f9403be0 	ldr	x0, [sp, #112]
     d20:	cb000021 	sub	x1, x1, x0
     d24:	b94057e4 	ldr	w4, [sp, #84]
     d28:	f9402fe3 	ldr	x3, [sp, #88]
     d2c:	b00000e0 	adrp	x0, 1d000 <__text_end+0x2c18>
     d30:	912b0002 	add	x2, x0, #0xac0
     d34:	aa0503e0 	mov	x0, x5
     d38:	94000073 	bl	f04 <snprintk>
     d3c:	b9006fe0 	str	w0, [sp, #108]
/home/ubuntu/phytium-linux-buildroot/output/build/phytium-optee-v3.2/optee_os/lib/libutils/ext/trace.c:173
     d40:	b9406fe0 	ldr	w0, [sp, #108]
     d44:	7100001f 	cmp	w0, #0x0
     d48:	54000b0b 	b.lt	ea8 <trace_vprintf+0x394>  // b.tstop
/home/ubuntu/phytium-linux-buildroot/output/build/phytium-optee-v3.2/optee_os/lib/libutils/ext/trace.c:175
     d4c:	b9806fe0 	ldrsw	x0, [sp, #108]
     d50:	f9403be1 	ldr	x1, [sp, #112]
     d54:	8b000020 	add	x0, x1, x0
     d58:	f9003be0 	str	x0, [sp, #112]
/home/ubuntu/phytium-linux-buildroot/output/build/phytium-optee-v3.2/optee_os/lib/libutils/ext/trace.c:170
     d5c:	1400000d 	b	d90 <trace_vprintf+0x27c>
/home/ubuntu/phytium-linux-buildroot/output/build/phytium-optee-v3.2/optee_os/lib/libutils/ext/trace.c:179
     d60:	f9403be0 	ldr	x0, [sp, #112]
     d64:	f103f81f 	cmp	x0, #0xfe
     d68:	54000a48 	b.hi	eb0 <trace_vprintf+0x39c>  // b.pmore
/home/ubuntu/phytium-linux-buildroot/output/build/phytium-optee-v3.2/optee_os/lib/libutils/ext/trace.c:181
     d6c:	f9403be0 	ldr	x0, [sp, #112]
     d70:	91000401 	add	x1, x0, #0x1
     d74:	f9003be1 	str	x1, [sp, #112]
     d78:	9101e3e1 	add	x1, sp, #0x78
     d7c:	52800402 	mov	w2, #0x20                  	// #32
     d80:	38206822 	strb	w2, [x1, x0]
/home/ubuntu/phytium-linux-buildroot/output/build/phytium-optee-v3.2/optee_os/lib/libutils/ext/trace.c:182
     d84:	f9403be0 	ldr	x0, [sp, #112]
     d88:	9101e3e1 	add	x1, sp, #0x78
     d8c:	3820683f 	strb	wzr, [x1, x0]
/home/ubuntu/phytium-linux-buildroot/output/build/phytium-optee-v3.2/optee_os/lib/libutils/ext/trace.c:185
     d90:	9101e3e1 	add	x1, sp, #0x78
     d94:	f9403be0 	ldr	x0, [sp, #112]
     d98:	8b000024 	add	x4, x1, x0
     d9c:	d2802001 	mov	x1, #0x100                 	// #256
     da0:	f9403be0 	ldr	x0, [sp, #112]
     da4:	cb000021 	sub	x1, x1, x0
     da8:	f9400260 	ldr	x0, [x19]
     dac:	f90013e0 	str	x0, [sp, #32]
     db0:	f9400660 	ldr	x0, [x19, #8]
     db4:	f90017e0 	str	x0, [sp, #40]
     db8:	f9400a60 	ldr	x0, [x19, #16]
     dbc:	f9001be0 	str	x0, [sp, #48]
     dc0:	f9400e60 	ldr	x0, [x19, #24]
     dc4:	f9001fe0 	str	x0, [sp, #56]
     dc8:	910083e0 	add	x0, sp, #0x20
     dcc:	aa0003e3 	mov	x3, x0
     dd0:	f94023e2 	ldr	x2, [sp, #64]
     dd4:	aa0403e0 	mov	x0, x4
     dd8:	94000088 	bl	ff8 <vsnprintk>
     ddc:	b9006fe0 	str	w0, [sp, #108]
/home/ubuntu/phytium-linux-buildroot/output/build/phytium-optee-v3.2/optee_os/lib/libutils/ext/trace.c:186
     de0:	b9406fe0 	ldr	w0, [sp, #108]
     de4:	7100001f 	cmp	w0, #0x0
     de8:	540000ad 	b.le	dfc <trace_vprintf+0x2e8>
/home/ubuntu/phytium-linux-buildroot/output/build/phytium-optee-v3.2/optee_os/lib/libutils/ext/trace.c:187
     dec:	b9806fe0 	ldrsw	x0, [sp, #108]
     df0:	f9403be1 	ldr	x1, [sp, #112]
     df4:	8b000020 	add	x0, x1, x0
     df8:	f9003be0 	str	x0, [sp, #112]
/home/ubuntu/phytium-linux-buildroot/output/build/phytium-optee-v3.2/optee_os/lib/libutils/ext/trace.c:189
     dfc:	f9403be0 	ldr	x0, [sp, #112]
     e00:	f103f81f 	cmp	x0, #0xfe
     e04:	54000069 	b.ls	e10 <trace_vprintf+0x2fc>  // b.plast
/home/ubuntu/phytium-linux-buildroot/output/build/phytium-optee-v3.2/optee_os/lib/libutils/ext/trace.c:190
     e08:	d2801fc0 	mov	x0, #0xfe                  	// #254
     e0c:	f9003be0 	str	x0, [sp, #112]
/home/ubuntu/phytium-linux-buildroot/output/build/phytium-optee-v3.2/optee_os/lib/libutils/ext/trace.c:192
     e10:	f9403be0 	ldr	x0, [sp, #112]
     e14:	9101e3e1 	add	x1, sp, #0x78
     e18:	52800142 	mov	w2, #0xa                   	// #10
     e1c:	38206822 	strb	w2, [x1, x0]
/home/ubuntu/phytium-linux-buildroot/output/build/phytium-optee-v3.2/optee_os/lib/libutils/ext/trace.c:193
     e20:	14000004 	b	e30 <trace_vprintf+0x31c>
/home/ubuntu/phytium-linux-buildroot/output/build/phytium-optee-v3.2/optee_os/lib/libutils/ext/trace.c:194
     e24:	f9403be0 	ldr	x0, [sp, #112]
     e28:	d1000400 	sub	x0, x0, #0x1
     e2c:	f9003be0 	str	x0, [sp, #112]
/home/ubuntu/phytium-linux-buildroot/output/build/phytium-optee-v3.2/optee_os/lib/libutils/ext/trace.c:193
     e30:	f9403be0 	ldr	x0, [sp, #112]
     e34:	f100001f 	cmp	x0, #0x0
     e38:	540000c0 	b.eq	e50 <trace_vprintf+0x33c>  // b.none
/home/ubuntu/phytium-linux-buildroot/output/build/phytium-optee-v3.2/optee_os/lib/libutils/ext/trace.c:193 (discriminator 1)
     e3c:	f9403be0 	ldr	x0, [sp, #112]
     e40:	9101e3e1 	add	x1, sp, #0x78
     e44:	38606820 	ldrb	w0, [x1, x0]
     e48:	7100281f 	cmp	w0, #0xa
     e4c:	54fffec0 	b.eq	e24 <trace_vprintf+0x310>  // b.none
/home/ubuntu/phytium-linux-buildroot/output/build/phytium-optee-v3.2/optee_os/lib/libutils/ext/trace.c:195
     e50:	f9403be0 	ldr	x0, [sp, #112]
     e54:	91000400 	add	x0, x0, #0x1
     e58:	f9003be0 	str	x0, [sp, #112]
/home/ubuntu/phytium-linux-buildroot/output/build/phytium-optee-v3.2/optee_os/lib/libutils/ext/trace.c:196
     e5c:	f9403be0 	ldr	x0, [sp, #112]
     e60:	91000400 	add	x0, x0, #0x1
     e64:	9101e3e1 	add	x1, sp, #0x78
     e68:	3820683f 	strb	wzr, [x1, x0]
/home/ubuntu/phytium-linux-buildroot/output/build/phytium-optee-v3.2/optee_os/lib/libutils/ext/trace.c:198
     e6c:	9101e3e0 	add	x0, sp, #0x78
     e70:	940008c8 	bl	3190 <trace_ext_puts>
     e74:	14000010 	b	eb4 <trace_vprintf+0x3a0>
/home/ubuntu/phytium-linux-buildroot/output/build/phytium-optee-v3.2/optee_os/lib/libutils/ext/trace.c:135
     e78:	d503201f 	nop
     e7c:	1400000e 	b	eb4 <trace_vprintf+0x3a0>
/home/ubuntu/phytium-linux-buildroot/output/build/phytium-optee-v3.2/optee_os/lib/libutils/ext/trace.c:141
     e80:	d503201f 	nop
     e84:	1400000c 	b	eb4 <trace_vprintf+0x3a0>
/home/ubuntu/phytium-linux-buildroot/output/build/phytium-optee-v3.2/optee_os/lib/libutils/ext/trace.c:148
     e88:	d503201f 	nop
     e8c:	1400000a 	b	eb4 <trace_vprintf+0x3a0>
/home/ubuntu/phytium-linux-buildroot/output/build/phytium-optee-v3.2/optee_os/lib/libutils/ext/trace.c:155
     e90:	d503201f 	nop
     e94:	14000008 	b	eb4 <trace_vprintf+0x3a0>
/home/ubuntu/phytium-linux-buildroot/output/build/phytium-optee-v3.2/optee_os/lib/libutils/ext/trace.c:161
     e98:	d503201f 	nop
     e9c:	14000006 	b	eb4 <trace_vprintf+0x3a0>
/home/ubuntu/phytium-linux-buildroot/output/build/phytium-optee-v3.2/optee_os/lib/libutils/ext/trace.c:167
     ea0:	d503201f 	nop
     ea4:	14000004 	b	eb4 <trace_vprintf+0x3a0>
/home/ubuntu/phytium-linux-buildroot/output/build/phytium-optee-v3.2/optee_os/lib/libutils/ext/trace.c:174
     ea8:	d503201f 	nop
     eac:	14000002 	b	eb4 <trace_vprintf+0x3a0>
/home/ubuntu/phytium-linux-buildroot/output/build/phytium-optee-v3.2/optee_os/lib/libutils/ext/trace.c:180
     eb0:	d503201f 	nop
/home/ubuntu/phytium-linux-buildroot/output/build/phytium-optee-v3.2/optee_os/lib/libutils/ext/trace.c:199
     eb4:	90000100 	adrp	x0, 20000 <_DYNAMIC>
     eb8:	f9409800 	ldr	x0, [x0, #304]
     ebc:	f940bfe1 	ldr	x1, [sp, #376]
     ec0:	f9400002 	ldr	x2, [x0]
     ec4:	eb020021 	subs	x1, x1, x2
     ec8:	d2800002 	mov	x2, #0x0                   	// #0
     ecc:	54000040 	b.eq	ed4 <trace_vprintf+0x3c0>  // b.none
     ed0:	97fffe6e 	bl	888 <__stack_chk_fail>
     ed4:	f9400bf3 	ldr	x19, [sp, #16]
     ed8:	a8d87bfd 	ldp	x29, x30, [sp], #384
     edc:	d65f03c0 	ret

0000000000000ee0 <dhex_dump>:
dhex_dump():
/home/ubuntu/phytium-linux-buildroot/output/build/phytium-optee-v3.2/optee_os/lib/libutils/ext/trace.c:308
     ee0:	d10083ff 	sub	sp, sp, #0x20
     ee4:	f9000fe0 	str	x0, [sp, #24]
     ee8:	b90017e1 	str	w1, [sp, #20]
     eec:	b90013e2 	str	w2, [sp, #16]
     ef0:	f90007e3 	str	x3, [sp, #8]
     ef4:	b90007e4 	str	w4, [sp, #4]
/home/ubuntu/phytium-linux-buildroot/output/build/phytium-optee-v3.2/optee_os/lib/libutils/ext/trace.c:309
     ef8:	d503201f 	nop
     efc:	910083ff 	add	sp, sp, #0x20
     f00:	d65f03c0 	ret

0000000000000f04 <snprintk>:
snprintk():
/home/ubuntu/phytium-linux-buildroot/output/build/phytium-optee-v3.2/optee_os/lib/libutils/ext/snprintk.c:113
     f04:	a9ad7bfd 	stp	x29, x30, [sp, #-304]!
     f08:	910003fd 	mov	x29, sp
     f0c:	f90027e0 	str	x0, [sp, #72]
     f10:	f90023e1 	str	x1, [sp, #64]
     f14:	f9001fe2 	str	x2, [sp, #56]
     f18:	f90087e3 	str	x3, [sp, #264]
     f1c:	f9008be4 	str	x4, [sp, #272]
     f20:	f9008fe5 	str	x5, [sp, #280]
     f24:	f90093e6 	str	x6, [sp, #288]
     f28:	f90097e7 	str	x7, [sp, #296]
     f2c:	3d8023e0 	str	q0, [sp, #128]
     f30:	3d8027e1 	str	q1, [sp, #144]
     f34:	3d802be2 	str	q2, [sp, #160]
     f38:	3d802fe3 	str	q3, [sp, #176]
     f3c:	3d8033e4 	str	q4, [sp, #192]
     f40:	3d8037e5 	str	q5, [sp, #208]
     f44:	3d803be6 	str	q6, [sp, #224]
     f48:	3d803fe7 	str	q7, [sp, #240]
     f4c:	90000100 	adrp	x0, 20000 <_DYNAMIC>
     f50:	f9409800 	ldr	x0, [x0, #304]
     f54:	f9400001 	ldr	x1, [x0]
     f58:	f9003fe1 	str	x1, [sp, #120]
     f5c:	d2800001 	mov	x1, #0x0                   	// #0
/home/ubuntu/phytium-linux-buildroot/output/build/phytium-optee-v3.2/optee_os/lib/libutils/ext/snprintk.c:117
     f60:	9104c3e0 	add	x0, sp, #0x130
     f64:	f9002fe0 	str	x0, [sp, #88]
     f68:	9104c3e0 	add	x0, sp, #0x130
     f6c:	f90033e0 	str	x0, [sp, #96]
     f70:	910403e0 	add	x0, sp, #0x100
     f74:	f90037e0 	str	x0, [sp, #104]
     f78:	128004e0 	mov	w0, #0xffffffd8            	// #-40
     f7c:	b90073e0 	str	w0, [sp, #112]
     f80:	12800fe0 	mov	w0, #0xffffff80            	// #-128
     f84:	b90077e0 	str	w0, [sp, #116]
/home/ubuntu/phytium-linux-buildroot/output/build/phytium-optee-v3.2/optee_os/lib/libutils/ext/snprintk.c:118
     f88:	f9402fe0 	ldr	x0, [sp, #88]
     f8c:	f9000be0 	str	x0, [sp, #16]
     f90:	f94033e0 	ldr	x0, [sp, #96]
     f94:	f9000fe0 	str	x0, [sp, #24]
     f98:	f94037e0 	ldr	x0, [sp, #104]
     f9c:	f90013e0 	str	x0, [sp, #32]
     fa0:	f9403be0 	ldr	x0, [sp, #112]
     fa4:	f90017e0 	str	x0, [sp, #40]
     fa8:	910043e0 	add	x0, sp, #0x10
     fac:	aa0003e3 	mov	x3, x0
     fb0:	f9401fe2 	ldr	x2, [sp, #56]
     fb4:	f94023e1 	ldr	x1, [sp, #64]
     fb8:	f94027e0 	ldr	x0, [sp, #72]
     fbc:	9400000f 	bl	ff8 <vsnprintk>
     fc0:	b90057e0 	str	w0, [sp, #84]
/home/ubuntu/phytium-linux-buildroot/output/build/phytium-optee-v3.2/optee_os/lib/libutils/ext/snprintk.c:121
     fc4:	b94057e0 	ldr	w0, [sp, #84]
     fc8:	2a0003e1 	mov	w1, w0
/home/ubuntu/phytium-linux-buildroot/output/build/phytium-optee-v3.2/optee_os/lib/libutils/ext/snprintk.c:122
     fcc:	90000100 	adrp	x0, 20000 <_DYNAMIC>
     fd0:	f9409800 	ldr	x0, [x0, #304]
     fd4:	f9403fe2 	ldr	x2, [sp, #120]
     fd8:	f9400003 	ldr	x3, [x0]
     fdc:	eb030042 	subs	x2, x2, x3
     fe0:	d2800003 	mov	x3, #0x0                   	// #0
     fe4:	54000040 	b.eq	fec <snprintk+0xe8>  // b.none
     fe8:	97fffe28 	bl	888 <__stack_chk_fail>
     fec:	2a0103e0 	mov	w0, w1
     ff0:	a8d37bfd 	ldp	x29, x30, [sp], #304
     ff4:	d65f03c0 	ret

0000000000000ff8 <vsnprintk>:
vsnprintk():
/home/ubuntu/phytium-linux-buildroot/output/build/phytium-optee-v3.2/optee_os/lib/libutils/ext/snprintk.c:130
     ff8:	a9ba7bfd 	stp	x29, x30, [sp, #-96]!
     ffc:	910003fd 	mov	x29, sp
    1000:	f9000bf3 	str	x19, [sp, #16]
    1004:	f9002fe0 	str	x0, [sp, #88]
    1008:	f9002be1 	str	x1, [sp, #80]
    100c:	f90027e2 	str	x2, [sp, #72]
    1010:	aa0303f3 	mov	x19, x3
/home/ubuntu/phytium-linux-buildroot/output/build/phytium-optee-v3.2/optee_os/lib/libutils/ext/snprintk.c:131
    1014:	f9400260 	ldr	x0, [x19]
    1018:	f90013e0 	str	x0, [sp, #32]
    101c:	f9400660 	ldr	x0, [x19, #8]
    1020:	f90017e0 	str	x0, [sp, #40]
    1024:	f9400a60 	ldr	x0, [x19, #16]
    1028:	f9001be0 	str	x0, [sp, #48]
    102c:	f9400e60 	ldr	x0, [x19, #24]
    1030:	f9001fe0 	str	x0, [sp, #56]
    1034:	910083e0 	add	x0, sp, #0x20
    1038:	52800024 	mov	w4, #0x1                   	// #1
    103c:	aa0003e3 	mov	x3, x0
    1040:	f94027e2 	ldr	x2, [sp, #72]
    1044:	f9402be1 	ldr	x1, [sp, #80]
    1048:	f9402fe0 	ldr	x0, [sp, #88]
    104c:	94000004 	bl	105c <__vsnprintf>
/home/ubuntu/phytium-linux-buildroot/output/build/phytium-optee-v3.2/optee_os/lib/libutils/ext/snprintk.c:132
    1050:	f9400bf3 	ldr	x19, [sp, #16]
    1054:	a8c67bfd 	ldp	x29, x30, [sp], #96
    1058:	d65f03c0 	ret

000000000000105c <__vsnprintf>:
__vsnprintf():
/home/ubuntu/phytium-linux-buildroot/output/build/phytium-optee-v3.2/optee_os/lib/libutils/ext/snprintk.c:138
    105c:	a9b87bfd 	stp	x29, x30, [sp, #-128]!
    1060:	910003fd 	mov	x29, sp
    1064:	f9000bf3 	str	x19, [sp, #16]
    1068:	f9002fe0 	str	x0, [sp, #88]
    106c:	f9002be1 	str	x1, [sp, #80]
    1070:	f90027e2 	str	x2, [sp, #72]
    1074:	aa0303f3 	mov	x19, x3
    1078:	39011fe4 	strb	w4, [sp, #71]
    107c:	f00000e0 	adrp	x0, 20000 <_DYNAMIC>
    1080:	f9409800 	ldr	x0, [x0, #304]
    1084:	f9400001 	ldr	x1, [x0]
    1088:	f9003fe1 	str	x1, [sp, #120]
    108c:	d2800001 	mov	x1, #0x0                   	// #0
/home/ubuntu/phytium-linux-buildroot/output/build/phytium-optee-v3.2/optee_os/lib/libutils/ext/snprintk.c:142
    1090:	f9402fe1 	ldr	x1, [sp, #88]
    1094:	f9402be0 	ldr	x0, [sp, #80]
    1098:	8b000020 	add	x0, x1, x0
    109c:	f9003be0 	str	x0, [sp, #112]
/home/ubuntu/phytium-linux-buildroot/output/build/phytium-optee-v3.2/optee_os/lib/libutils/ext/snprintk.c:143
    10a0:	f9400260 	ldr	x0, [x19]
    10a4:	f90013e0 	str	x0, [sp, #32]
    10a8:	f9400660 	ldr	x0, [x19, #8]
    10ac:	f90017e0 	str	x0, [sp, #40]
    10b0:	f9400a60 	ldr	x0, [x19, #16]
    10b4:	f9001be0 	str	x0, [sp, #48]
    10b8:	f9400e60 	ldr	x0, [x19, #24]
    10bc:	f9001fe0 	str	x0, [sp, #56]
    10c0:	910083e1 	add	x1, sp, #0x20
    10c4:	9101c3e0 	add	x0, sp, #0x70
    10c8:	39411fe5 	ldrb	w5, [sp, #71]
    10cc:	aa0103e4 	mov	x4, x1
    10d0:	f9402fe3 	ldr	x3, [sp, #88]
    10d4:	aa0003e2 	mov	x2, x0
    10d8:	52800101 	mov	w1, #0x8                   	// #8
    10dc:	f94027e0 	ldr	x0, [sp, #72]
    10e0:	94000076 	bl	12b8 <kprintf>
    10e4:	b9006fe0 	str	w0, [sp, #108]
/home/ubuntu/phytium-linux-buildroot/output/build/phytium-optee-v3.2/optee_os/lib/libutils/ext/snprintk.c:144
    10e8:	f9402fe0 	ldr	x0, [sp, #88]
    10ec:	f100001f 	cmp	x0, #0x0
    10f0:	54000240 	b.eq	1138 <__vsnprintf+0xdc>  // b.none
/home/ubuntu/phytium-linux-buildroot/output/build/phytium-optee-v3.2/optee_os/lib/libutils/ext/snprintk.c:144 (discriminator 1)
    10f4:	f9402be0 	ldr	x0, [sp, #80]
    10f8:	f100001f 	cmp	x0, #0x0
    10fc:	540001e0 	b.eq	1138 <__vsnprintf+0xdc>  // b.none
/home/ubuntu/phytium-linux-buildroot/output/build/phytium-optee-v3.2/optee_os/lib/libutils/ext/snprintk.c:146
    1100:	b9806fe0 	ldrsw	x0, [sp, #108]
    1104:	f9402be1 	ldr	x1, [sp, #80]
    1108:	eb00003f 	cmp	x1, x0
    110c:	540000e8 	b.hi	1128 <__vsnprintf+0xcc>  // b.pmore
/home/ubuntu/phytium-linux-buildroot/output/build/phytium-optee-v3.2/optee_os/lib/libutils/ext/snprintk.c:147
    1110:	f9402be0 	ldr	x0, [sp, #80]
    1114:	d1000400 	sub	x0, x0, #0x1
    1118:	f9402fe1 	ldr	x1, [sp, #88]
    111c:	8b000020 	add	x0, x1, x0
    1120:	3900001f 	strb	wzr, [x0]
    1124:	14000005 	b	1138 <__vsnprintf+0xdc>
/home/ubuntu/phytium-linux-buildroot/output/build/phytium-optee-v3.2/optee_os/lib/libutils/ext/snprintk.c:149
    1128:	b9806fe0 	ldrsw	x0, [sp, #108]
    112c:	f9402fe1 	ldr	x1, [sp, #88]
    1130:	8b000020 	add	x0, x1, x0
    1134:	3900001f 	strb	wzr, [x0]
/home/ubuntu/phytium-linux-buildroot/output/build/phytium-optee-v3.2/optee_os/lib/libutils/ext/snprintk.c:151
    1138:	b9406fe0 	ldr	w0, [sp, #108]
    113c:	2a0003e1 	mov	w1, w0
/home/ubuntu/phytium-linux-buildroot/output/build/phytium-optee-v3.2/optee_os/lib/libutils/ext/snprintk.c:152
    1140:	f00000e0 	adrp	x0, 20000 <_DYNAMIC>
    1144:	f9409800 	ldr	x0, [x0, #304]
    1148:	f9403fe2 	ldr	x2, [sp, #120]
    114c:	f9400003 	ldr	x3, [x0]
    1150:	eb030042 	subs	x2, x2, x3
    1154:	d2800003 	mov	x3, #0x0                   	// #0
    1158:	54000040 	b.eq	1160 <__vsnprintf+0x104>  // b.none
    115c:	97fffdcb 	bl	888 <__stack_chk_fail>
    1160:	2a0103e0 	mov	w0, w1
    1164:	f9400bf3 	ldr	x19, [sp, #16]
    1168:	a8c87bfd 	ldp	x29, x30, [sp], #128
    116c:	d65f03c0 	ret

0000000000001170 <__vsprintf>:
__vsprintf():
/home/ubuntu/phytium-linux-buildroot/output/build/phytium-optee-v3.2/optee_os/lib/libutils/ext/snprintk.c:155
    1170:	a9bb7bfd 	stp	x29, x30, [sp, #-80]!
    1174:	910003fd 	mov	x29, sp
    1178:	f9000bf3 	str	x19, [sp, #16]
    117c:	f90027e0 	str	x0, [sp, #72]
    1180:	f90023e1 	str	x1, [sp, #64]
    1184:	aa0203f3 	mov	x19, x2
/home/ubuntu/phytium-linux-buildroot/output/build/phytium-optee-v3.2/optee_os/lib/libutils/ext/snprintk.c:156
    1188:	f9400260 	ldr	x0, [x19]
    118c:	f90013e0 	str	x0, [sp, #32]
    1190:	f9400660 	ldr	x0, [x19, #8]
    1194:	f90017e0 	str	x0, [sp, #40]
    1198:	f9400a60 	ldr	x0, [x19, #16]
    119c:	f9001be0 	str	x0, [sp, #48]
    11a0:	f9400e60 	ldr	x0, [x19, #24]
    11a4:	f9001fe0 	str	x0, [sp, #56]
    11a8:	910083e0 	add	x0, sp, #0x20
    11ac:	52800005 	mov	w5, #0x0                   	// #0
    11b0:	aa0003e4 	mov	x4, x0
    11b4:	f94027e3 	ldr	x3, [sp, #72]
    11b8:	d2800002 	mov	x2, #0x0                   	// #0
    11bc:	52800101 	mov	w1, #0x8                   	// #8
    11c0:	f94023e0 	ldr	x0, [sp, #64]
    11c4:	9400003d 	bl	12b8 <kprintf>
/home/ubuntu/phytium-linux-buildroot/output/build/phytium-optee-v3.2/optee_os/lib/libutils/ext/snprintk.c:157
    11c8:	f9400bf3 	ldr	x19, [sp, #16]
    11cc:	a8c57bfd 	ldp	x29, x30, [sp], #80
    11d0:	d65f03c0 	ret

00000000000011d4 <uuid2str>:
uuid2str():
/home/ubuntu/phytium-linux-buildroot/output/build/phytium-optee-v3.2/optee_os/lib/libutils/ext/snprintk.c:221
    11d4:	d101c3ff 	sub	sp, sp, #0x70
    11d8:	a9037bfd 	stp	x29, x30, [sp, #48]
    11dc:	9100c3fd 	add	x29, sp, #0x30
    11e0:	f9002fe0 	str	x0, [sp, #88]
    11e4:	f9002be1 	str	x1, [sp, #80]
    11e8:	f90027e2 	str	x2, [sp, #72]
/home/ubuntu/phytium-linux-buildroot/output/build/phytium-optee-v3.2/optee_os/lib/libutils/ext/snprintk.c:227
    11ec:	f94027e0 	ldr	x0, [sp, #72]
    11f0:	f90037e0 	str	x0, [sp, #104]
/home/ubuntu/phytium-linux-buildroot/output/build/phytium-optee-v3.2/optee_os/lib/libutils/ext/snprintk.c:229
    11f4:	f94037e0 	ldr	x0, [sp, #104]
    11f8:	b9400001 	ldr	w1, [x0]
/home/ubuntu/phytium-linux-buildroot/output/build/phytium-optee-v3.2/optee_os/lib/libutils/ext/snprintk.c:231
    11fc:	f94037e0 	ldr	x0, [sp, #104]
    1200:	79400800 	ldrh	w0, [x0, #4]
/home/ubuntu/phytium-linux-buildroot/output/build/phytium-optee-v3.2/optee_os/lib/libutils/ext/snprintk.c:229
    1204:	2a0003e8 	mov	w8, w0
/home/ubuntu/phytium-linux-buildroot/output/build/phytium-optee-v3.2/optee_os/lib/libutils/ext/snprintk.c:231
    1208:	f94037e0 	ldr	x0, [sp, #104]
    120c:	79400c00 	ldrh	w0, [x0, #6]
/home/ubuntu/phytium-linux-buildroot/output/build/phytium-optee-v3.2/optee_os/lib/libutils/ext/snprintk.c:229
    1210:	2a0003e9 	mov	w9, w0
/home/ubuntu/phytium-linux-buildroot/output/build/phytium-optee-v3.2/optee_os/lib/libutils/ext/snprintk.c:232
    1214:	f94037e0 	ldr	x0, [sp, #104]
    1218:	39402000 	ldrb	w0, [x0, #8]
/home/ubuntu/phytium-linux-buildroot/output/build/phytium-optee-v3.2/optee_os/lib/libutils/ext/snprintk.c:229
    121c:	2a0003ea 	mov	w10, w0
/home/ubuntu/phytium-linux-buildroot/output/build/phytium-optee-v3.2/optee_os/lib/libutils/ext/snprintk.c:232
    1220:	f94037e0 	ldr	x0, [sp, #104]
    1224:	39402400 	ldrb	w0, [x0, #9]
/home/ubuntu/phytium-linux-buildroot/output/build/phytium-optee-v3.2/optee_os/lib/libutils/ext/snprintk.c:229
    1228:	2a0003e7 	mov	w7, w0
/home/ubuntu/phytium-linux-buildroot/output/build/phytium-optee-v3.2/optee_os/lib/libutils/ext/snprintk.c:233
    122c:	f94037e0 	ldr	x0, [sp, #104]
    1230:	39402800 	ldrb	w0, [x0, #10]
/home/ubuntu/phytium-linux-buildroot/output/build/phytium-optee-v3.2/optee_os/lib/libutils/ext/snprintk.c:229
    1234:	2a0003e2 	mov	w2, w0
/home/ubuntu/phytium-linux-buildroot/output/build/phytium-optee-v3.2/optee_os/lib/libutils/ext/snprintk.c:233
    1238:	f94037e0 	ldr	x0, [sp, #104]
    123c:	39402c00 	ldrb	w0, [x0, #11]
/home/ubuntu/phytium-linux-buildroot/output/build/phytium-optee-v3.2/optee_os/lib/libutils/ext/snprintk.c:229
    1240:	2a0003e3 	mov	w3, w0
/home/ubuntu/phytium-linux-buildroot/output/build/phytium-optee-v3.2/optee_os/lib/libutils/ext/snprintk.c:234
    1244:	f94037e0 	ldr	x0, [sp, #104]
    1248:	39403000 	ldrb	w0, [x0, #12]
/home/ubuntu/phytium-linux-buildroot/output/build/phytium-optee-v3.2/optee_os/lib/libutils/ext/snprintk.c:229
    124c:	2a0003e4 	mov	w4, w0
/home/ubuntu/phytium-linux-buildroot/output/build/phytium-optee-v3.2/optee_os/lib/libutils/ext/snprintk.c:234
    1250:	f94037e0 	ldr	x0, [sp, #104]
    1254:	39403400 	ldrb	w0, [x0, #13]
/home/ubuntu/phytium-linux-buildroot/output/build/phytium-optee-v3.2/optee_os/lib/libutils/ext/snprintk.c:229
    1258:	2a0003e5 	mov	w5, w0
/home/ubuntu/phytium-linux-buildroot/output/build/phytium-optee-v3.2/optee_os/lib/libutils/ext/snprintk.c:235
    125c:	f94037e0 	ldr	x0, [sp, #104]
    1260:	39403800 	ldrb	w0, [x0, #14]
/home/ubuntu/phytium-linux-buildroot/output/build/phytium-optee-v3.2/optee_os/lib/libutils/ext/snprintk.c:229
    1264:	2a0003e6 	mov	w6, w0
/home/ubuntu/phytium-linux-buildroot/output/build/phytium-optee-v3.2/optee_os/lib/libutils/ext/snprintk.c:235
    1268:	f94037e0 	ldr	x0, [sp, #104]
    126c:	39403c00 	ldrb	w0, [x0, #15]
/home/ubuntu/phytium-linux-buildroot/output/build/phytium-optee-v3.2/optee_os/lib/libutils/ext/snprintk.c:229
    1270:	b9002be0 	str	w0, [sp, #40]
    1274:	b90023e6 	str	w6, [sp, #32]
    1278:	b9001be5 	str	w5, [sp, #24]
    127c:	b90013e4 	str	w4, [sp, #16]
    1280:	b9000be3 	str	w3, [sp, #8]
    1284:	b90003e2 	str	w2, [sp]
    1288:	2a0a03e6 	mov	w6, w10
    128c:	2a0903e5 	mov	w5, w9
    1290:	2a0803e4 	mov	w4, w8
    1294:	2a0103e3 	mov	w3, w1
    1298:	900000e0 	adrp	x0, 1d000 <__text_end+0x2c18>
    129c:	912c0002 	add	x2, x0, #0xb00
    12a0:	f9402be1 	ldr	x1, [sp, #80]
    12a4:	f9402fe0 	ldr	x0, [sp, #88]
    12a8:	97ffff17 	bl	f04 <snprintk>
/home/ubuntu/phytium-linux-buildroot/output/build/phytium-optee-v3.2/optee_os/lib/libutils/ext/snprintk.c:236
    12ac:	a9437bfd 	ldp	x29, x30, [sp, #48]
    12b0:	9101c3ff 	add	sp, sp, #0x70
    12b4:	d65f03c0 	ret

00000000000012b8 <kprintf>:
kprintf():
/home/ubuntu/phytium-linux-buildroot/output/build/phytium-optee-v3.2/optee_os/lib/libutils/ext/snprintk.c:244
    12b8:	a9b37bfd 	stp	x29, x30, [sp, #-208]!
    12bc:	910003fd 	mov	x29, sp
    12c0:	f9000bf3 	str	x19, [sp, #16]
    12c4:	f9001fe0 	str	x0, [sp, #56]
    12c8:	b90037e1 	str	w1, [sp, #52]
    12cc:	f90017e2 	str	x2, [sp, #40]
    12d0:	f90013e3 	str	x3, [sp, #32]
    12d4:	aa0403f3 	mov	x19, x4
    12d8:	3900cfe5 	strb	w5, [sp, #51]
    12dc:	f00000e0 	adrp	x0, 20000 <_DYNAMIC>
    12e0:	f9409800 	ldr	x0, [x0, #304]
    12e4:	f9400001 	ldr	x1, [x0]
    12e8:	f90067e1 	str	x1, [sp, #200]
    12ec:	d2800001 	mov	x1, #0x0                   	// #0
/home/ubuntu/phytium-linux-buildroot/output/build/phytium-optee-v3.2/optee_os/lib/libutils/ext/snprintk.c:264
    12f0:	b94037e0 	ldr	w0, [sp, #52]
    12f4:	7100201f 	cmp	w0, #0x8
    12f8:	54000101 	b.ne	1318 <kprintf+0x60>  // b.any
/home/ubuntu/phytium-linux-buildroot/output/build/phytium-optee-v3.2/optee_os/lib/libutils/ext/snprintk.c:264 (discriminator 1)
    12fc:	f94017e0 	ldr	x0, [sp, #40]
    1300:	f100001f 	cmp	x0, #0x0
    1304:	540000a0 	b.eq	1318 <kprintf+0x60>  // b.none
/home/ubuntu/phytium-linux-buildroot/output/build/phytium-optee-v3.2/optee_os/lib/libutils/ext/snprintk.c:265
    1308:	f94017e0 	ldr	x0, [sp, #40]
    130c:	f9400000 	ldr	x0, [x0]
    1310:	f9004be0 	str	x0, [sp, #144]
    1314:	14000002 	b	131c <kprintf+0x64>
/home/ubuntu/phytium-linux-buildroot/output/build/phytium-optee-v3.2/optee_os/lib/libutils/ext/snprintk.c:267
    1318:	f9004bff 	str	xzr, [sp, #144]
/home/ubuntu/phytium-linux-buildroot/output/build/phytium-optee-v3.2/optee_os/lib/libutils/ext/snprintk.c:269
    131c:	f9003fff 	str	xzr, [sp, #120]
/home/ubuntu/phytium-linux-buildroot/output/build/phytium-optee-v3.2/optee_os/lib/libutils/ext/snprintk.c:270
    1320:	b9006fff 	str	wzr, [sp, #108]
/home/ubuntu/phytium-linux-buildroot/output/build/phytium-optee-v3.2/optee_os/lib/libutils/ext/snprintk.c:272
    1324:	f9401fe0 	ldr	x0, [sp, #56]
    1328:	f9003be0 	str	x0, [sp, #112]
/home/ubuntu/phytium-linux-buildroot/output/build/phytium-optee-v3.2/optee_os/lib/libutils/ext/snprintk.c:273
    132c:	b90057ff 	str	wzr, [sp, #84]
/home/ubuntu/phytium-linux-buildroot/output/build/phytium-optee-v3.2/optee_os/lib/libutils/ext/snprintk.c:275
    1330:	f90047ff 	str	xzr, [sp, #136]
/home/ubuntu/phytium-linux-buildroot/output/build/phytium-optee-v3.2/optee_os/lib/libutils/ext/snprintk.c:281
    1334:	1400001a 	b	139c <kprintf+0xe4>
/home/ubuntu/phytium-linux-buildroot/output/build/phytium-optee-v3.2/optee_os/lib/libutils/ext/snprintk.c:282
    1338:	b94057e0 	ldr	w0, [sp, #84]
    133c:	11000400 	add	w0, w0, #0x1
    1340:	b90057e0 	str	w0, [sp, #84]
/home/ubuntu/phytium-linux-buildroot/output/build/phytium-optee-v3.2/optee_os/lib/libutils/ext/snprintk.c:283
    1344:	b94037e0 	ldr	w0, [sp, #52]
    1348:	7100201f 	cmp	w0, #0x8
    134c:	54000221 	b.ne	1390 <kprintf+0xd8>  // b.any
/home/ubuntu/phytium-linux-buildroot/output/build/phytium-optee-v3.2/optee_os/lib/libutils/ext/snprintk.c:283 (discriminator 1)
    1350:	f94013e0 	ldr	x0, [sp, #32]
    1354:	f100001f 	cmp	x0, #0x0
    1358:	540001c0 	b.eq	1390 <kprintf+0xd8>  // b.none
/home/ubuntu/phytium-linux-buildroot/output/build/phytium-optee-v3.2/optee_os/lib/libutils/ext/snprintk.c:283 (discriminator 2)
    135c:	f94017e0 	ldr	x0, [sp, #40]
    1360:	f100001f 	cmp	x0, #0x0
    1364:	540000a0 	b.eq	1378 <kprintf+0xc0>  // b.none
/home/ubuntu/phytium-linux-buildroot/output/build/phytium-optee-v3.2/optee_os/lib/libutils/ext/snprintk.c:283 (discriminator 4)
    1368:	f94013e1 	ldr	x1, [sp, #32]
    136c:	f9404be0 	ldr	x0, [sp, #144]
    1370:	eb00003f 	cmp	x1, x0
    1374:	540000e2 	b.cs	1390 <kprintf+0xd8>  // b.hs, b.nlast
/home/ubuntu/phytium-linux-buildroot/output/build/phytium-optee-v3.2/optee_os/lib/libutils/ext/snprintk.c:283 (discriminator 5)
    1378:	f94013e0 	ldr	x0, [sp, #32]
    137c:	91000401 	add	x1, x0, #0x1
    1380:	f90013e1 	str	x1, [sp, #32]
    1384:	f9403be1 	ldr	x1, [sp, #112]
    1388:	39400021 	ldrb	w1, [x1]
    138c:	39000001 	strb	w1, [x0]
/home/ubuntu/phytium-linux-buildroot/output/build/phytium-optee-v3.2/optee_os/lib/libutils/ext/snprintk.c:281
    1390:	f9403be0 	ldr	x0, [sp, #112]
    1394:	91000400 	add	x0, x0, #0x1
    1398:	f9003be0 	str	x0, [sp, #112]
/home/ubuntu/phytium-linux-buildroot/output/build/phytium-optee-v3.2/optee_os/lib/libutils/ext/snprintk.c:281 (discriminator 1)
    139c:	f9403be0 	ldr	x0, [sp, #112]
    13a0:	39400000 	ldrb	w0, [x0]
    13a4:	7100941f 	cmp	w0, #0x25
    13a8:	540000a0 	b.eq	13bc <kprintf+0x104>  // b.none
/home/ubuntu/phytium-linux-buildroot/output/build/phytium-optee-v3.2/optee_os/lib/libutils/ext/snprintk.c:281 (discriminator 2)
    13ac:	f9403be0 	ldr	x0, [sp, #112]
    13b0:	39400000 	ldrb	w0, [x0]
    13b4:	7100001f 	cmp	w0, #0x0
    13b8:	54fffc01 	b.ne	1338 <kprintf+0x80>  // b.any
/home/ubuntu/phytium-linux-buildroot/output/build/phytium-optee-v3.2/optee_os/lib/libutils/ext/snprintk.c:285
    13bc:	f9403be0 	ldr	x0, [sp, #112]
    13c0:	39400000 	ldrb	w0, [x0]
    13c4:	7100001f 	cmp	w0, #0x0
    13c8:	5400d6a0 	b.eq	2e9c <kprintf+0x1be4>  // b.none
/home/ubuntu/phytium-linux-buildroot/output/build/phytium-optee-v3.2/optee_os/lib/libutils/ext/snprintk.c:288
    13cc:	f9403be0 	ldr	x0, [sp, #112]
    13d0:	91000400 	add	x0, x0, #0x1
    13d4:	f9003be0 	str	x0, [sp, #112]
/home/ubuntu/phytium-linux-buildroot/output/build/phytium-optee-v3.2/optee_os/lib/libutils/ext/snprintk.c:290
    13d8:	b90053ff 	str	wzr, [sp, #80]
/home/ubuntu/phytium-linux-buildroot/output/build/phytium-optee-v3.2/optee_os/lib/libutils/ext/snprintk.c:291
    13dc:	b90067ff 	str	wzr, [sp, #100]
/home/ubuntu/phytium-linux-buildroot/output/build/phytium-optee-v3.2/optee_os/lib/libutils/ext/snprintk.c:292
    13e0:	b9005bff 	str	wzr, [sp, #88]
/home/ubuntu/phytium-linux-buildroot/output/build/phytium-optee-v3.2/optee_os/lib/libutils/ext/snprintk.c:293
    13e4:	12800000 	mov	w0, #0xffffffff            	// #-1
    13e8:	b9005fe0 	str	w0, [sp, #92]
/home/ubuntu/phytium-linux-buildroot/output/build/phytium-optee-v3.2/optee_os/lib/libutils/ext/snprintk.c:294
    13ec:	39011fff 	strb	wzr, [sp, #71]
/home/ubuntu/phytium-linux-buildroot/output/build/phytium-optee-v3.2/optee_os/lib/libutils/ext/snprintk.c:296
    13f0:	f9403be0 	ldr	x0, [sp, #112]
    13f4:	91000401 	add	x1, x0, #0x1
    13f8:	f9003be1 	str	x1, [sp, #112]
    13fc:	39400000 	ldrb	w0, [x0]
    1400:	b9004be0 	str	w0, [sp, #72]
    1404:	b9404be0 	ldr	w0, [sp, #72]
    1408:	51008000 	sub	w0, w0, #0x20
    140c:	7101681f 	cmp	w0, #0x5a
    1410:	5400b408 	b.hi	2a90 <kprintf+0x17d8>  // b.pmore
    1414:	900000e1 	adrp	x1, 1d000 <__text_end+0x2c18>
    1418:	912d7021 	add	x1, x1, #0xb5c
    141c:	b8605820 	ldr	w0, [x1, w0, uxtw #2]
    1420:	10000061 	adr	x1, 142c <kprintf+0x174>
    1424:	8b20c820 	add	x0, x1, w0, sxtw #2
    1428:	d61f0000 	br	x0
/home/ubuntu/phytium-linux-buildroot/output/build/phytium-optee-v3.2/optee_os/lib/libutils/ext/snprintk.c:304
    142c:	39411fe0 	ldrb	w0, [sp, #71]
    1430:	7100001f 	cmp	w0, #0x0
    1434:	54fffde1 	b.ne	13f0 <kprintf+0x138>  // b.any
/home/ubuntu/phytium-linux-buildroot/output/build/phytium-optee-v3.2/optee_os/lib/libutils/ext/snprintk.c:305
    1438:	52800400 	mov	w0, #0x20                  	// #32
    143c:	39011fe0 	strb	w0, [sp, #71]
/home/ubuntu/phytium-linux-buildroot/output/build/phytium-optee-v3.2/optee_os/lib/libutils/ext/snprintk.c:306
    1440:	17ffffec 	b	13f0 <kprintf+0x138>
/home/ubuntu/phytium-linux-buildroot/output/build/phytium-optee-v3.2/optee_os/lib/libutils/ext/snprintk.c:308
    1444:	b94053e0 	ldr	w0, [sp, #80]
    1448:	32000000 	orr	w0, w0, #0x1
    144c:	b90053e0 	str	w0, [sp, #80]
/home/ubuntu/phytium-linux-buildroot/output/build/phytium-optee-v3.2/optee_os/lib/libutils/ext/snprintk.c:309
    1450:	17ffffe8 	b	13f0 <kprintf+0x138>
/home/ubuntu/phytium-linux-buildroot/output/build/phytium-optee-v3.2/optee_os/lib/libutils/ext/snprintk.c:317
    1454:	b9401a61 	ldr	w1, [x19, #24]
    1458:	f9400260 	ldr	x0, [x19]
    145c:	7100003f 	cmp	w1, #0x0
    1460:	540000ab 	b.lt	1474 <kprintf+0x1bc>  // b.tstop
    1464:	91002c01 	add	x1, x0, #0xb
    1468:	927df021 	and	x1, x1, #0xfffffffffffffff8
    146c:	f9000261 	str	x1, [x19]
    1470:	1400000d 	b	14a4 <kprintf+0x1ec>
    1474:	11002022 	add	w2, w1, #0x8
    1478:	b9001a62 	str	w2, [x19, #24]
    147c:	b9401a62 	ldr	w2, [x19, #24]
    1480:	7100005f 	cmp	w2, #0x0
    1484:	540000ad 	b.le	1498 <kprintf+0x1e0>
    1488:	91002c01 	add	x1, x0, #0xb
    148c:	927df021 	and	x1, x1, #0xfffffffffffffff8
    1490:	f9000261 	str	x1, [x19]
    1494:	14000004 	b	14a4 <kprintf+0x1ec>
    1498:	f9400662 	ldr	x2, [x19, #8]
    149c:	93407c20 	sxtw	x0, w1
    14a0:	8b000040 	add	x0, x2, x0
    14a4:	b9400000 	ldr	w0, [x0]
    14a8:	b9005be0 	str	w0, [sp, #88]
    14ac:	b9405be0 	ldr	w0, [sp, #88]
    14b0:	7100001f 	cmp	w0, #0x0
    14b4:	5400004b 	b.lt	14bc <kprintf+0x204>  // b.tstop
/home/ubuntu/phytium-linux-buildroot/output/build/phytium-optee-v3.2/optee_os/lib/libutils/ext/snprintk.c:318
    14b8:	17ffffce 	b	13f0 <kprintf+0x138>
/home/ubuntu/phytium-linux-buildroot/output/build/phytium-optee-v3.2/optee_os/lib/libutils/ext/snprintk.c:319
    14bc:	b9405be0 	ldr	w0, [sp, #88]
    14c0:	4b0003e0 	neg	w0, w0
    14c4:	b9005be0 	str	w0, [sp, #88]
/home/ubuntu/phytium-linux-buildroot/output/build/phytium-optee-v3.2/optee_os/lib/libutils/ext/snprintk.c:322
    14c8:	b94053e0 	ldr	w0, [sp, #80]
    14cc:	321e0000 	orr	w0, w0, #0x4
    14d0:	b90053e0 	str	w0, [sp, #80]
/home/ubuntu/phytium-linux-buildroot/output/build/phytium-optee-v3.2/optee_os/lib/libutils/ext/snprintk.c:323
    14d4:	17ffffc7 	b	13f0 <kprintf+0x138>
/home/ubuntu/phytium-linux-buildroot/output/build/phytium-optee-v3.2/optee_os/lib/libutils/ext/snprintk.c:325
    14d8:	52800560 	mov	w0, #0x2b                  	// #43
    14dc:	39011fe0 	strb	w0, [sp, #71]
/home/ubuntu/phytium-linux-buildroot/output/build/phytium-optee-v3.2/optee_os/lib/libutils/ext/snprintk.c:326
    14e0:	17ffffc4 	b	13f0 <kprintf+0x138>
/home/ubuntu/phytium-linux-buildroot/output/build/phytium-optee-v3.2/optee_os/lib/libutils/ext/snprintk.c:328
    14e4:	f9403be0 	ldr	x0, [sp, #112]
    14e8:	91000401 	add	x1, x0, #0x1
    14ec:	f9003be1 	str	x1, [sp, #112]
    14f0:	39400000 	ldrb	w0, [x0]
    14f4:	b9004be0 	str	w0, [sp, #72]
    14f8:	b9404be0 	ldr	w0, [sp, #72]
    14fc:	7100a81f 	cmp	w0, #0x2a
    1500:	540003c1 	b.ne	1578 <kprintf+0x2c0>  // b.any
/home/ubuntu/phytium-linux-buildroot/output/build/phytium-optee-v3.2/optee_os/lib/libutils/ext/snprintk.c:329
    1504:	b9401a61 	ldr	w1, [x19, #24]
    1508:	f9400260 	ldr	x0, [x19]
    150c:	7100003f 	cmp	w1, #0x0
    1510:	540000ab 	b.lt	1524 <kprintf+0x26c>  // b.tstop
    1514:	91002c01 	add	x1, x0, #0xb
    1518:	927df021 	and	x1, x1, #0xfffffffffffffff8
    151c:	f9000261 	str	x1, [x19]
    1520:	1400000d 	b	1554 <kprintf+0x29c>
    1524:	11002022 	add	w2, w1, #0x8
    1528:	b9001a62 	str	w2, [x19, #24]
    152c:	b9401a62 	ldr	w2, [x19, #24]
    1530:	7100005f 	cmp	w2, #0x0
    1534:	540000ad 	b.le	1548 <kprintf+0x290>
    1538:	91002c01 	add	x1, x0, #0xb
    153c:	927df021 	and	x1, x1, #0xfffffffffffffff8
    1540:	f9000261 	str	x1, [x19]
    1544:	14000004 	b	1554 <kprintf+0x29c>
    1548:	f9400662 	ldr	x2, [x19, #8]
    154c:	93407c20 	sxtw	x0, w1
    1550:	8b000040 	add	x0, x2, x0
    1554:	b9400000 	ldr	w0, [x0]
    1558:	b9004fe0 	str	w0, [sp, #76]
/home/ubuntu/phytium-linux-buildroot/output/build/phytium-optee-v3.2/optee_os/lib/libutils/ext/snprintk.c:330
    155c:	b9404fe2 	ldr	w2, [sp, #76]
    1560:	b9404fe1 	ldr	w1, [sp, #76]
    1564:	12800000 	mov	w0, #0xffffffff            	// #-1
    1568:	7100005f 	cmp	w2, #0x0
    156c:	1a80a020 	csel	w0, w1, w0, ge  // ge = tcont
    1570:	b9005fe0 	str	w0, [sp, #92]
/home/ubuntu/phytium-linux-buildroot/output/build/phytium-optee-v3.2/optee_os/lib/libutils/ext/snprintk.c:331
    1574:	17ffff9f 	b	13f0 <kprintf+0x138>
/home/ubuntu/phytium-linux-buildroot/output/build/phytium-optee-v3.2/optee_os/lib/libutils/ext/snprintk.c:333
    1578:	b9004fff 	str	wzr, [sp, #76]
/home/ubuntu/phytium-linux-buildroot/output/build/phytium-optee-v3.2/optee_os/lib/libutils/ext/snprintk.c:334
    157c:	1400000d 	b	15b0 <kprintf+0x2f8>
/home/ubuntu/phytium-linux-buildroot/output/build/phytium-optee-v3.2/optee_os/lib/libutils/ext/snprintk.c:335
    1580:	b9404fe1 	ldr	w1, [sp, #76]
    1584:	52800140 	mov	w0, #0xa                   	// #10
    1588:	1b007c21 	mul	w1, w1, w0
    158c:	b9404be0 	ldr	w0, [sp, #72]
    1590:	5100c000 	sub	w0, w0, #0x30
    1594:	0b000020 	add	w0, w1, w0
    1598:	b9004fe0 	str	w0, [sp, #76]
/home/ubuntu/phytium-linux-buildroot/output/build/phytium-optee-v3.2/optee_os/lib/libutils/ext/snprintk.c:336
    159c:	f9403be0 	ldr	x0, [sp, #112]
    15a0:	91000401 	add	x1, x0, #0x1
    15a4:	f9003be1 	str	x1, [sp, #112]
    15a8:	39400000 	ldrb	w0, [x0]
    15ac:	b9004be0 	str	w0, [sp, #72]
/home/ubuntu/phytium-linux-buildroot/output/build/phytium-optee-v3.2/optee_os/lib/libutils/ext/snprintk.c:334
    15b0:	b9404be0 	ldr	w0, [sp, #72]
    15b4:	5100c000 	sub	w0, w0, #0x30
    15b8:	7100241f 	cmp	w0, #0x9
    15bc:	54fffe29 	b.ls	1580 <kprintf+0x2c8>  // b.plast
/home/ubuntu/phytium-linux-buildroot/output/build/phytium-optee-v3.2/optee_os/lib/libutils/ext/snprintk.c:338
    15c0:	b9404fe2 	ldr	w2, [sp, #76]
    15c4:	b9404fe1 	ldr	w1, [sp, #76]
    15c8:	12800000 	mov	w0, #0xffffffff            	// #-1
    15cc:	7100005f 	cmp	w2, #0x0
    15d0:	1a80a020 	csel	w0, w1, w0, ge  // ge = tcont
    15d4:	b9005fe0 	str	w0, [sp, #92]
/home/ubuntu/phytium-linux-buildroot/output/build/phytium-optee-v3.2/optee_os/lib/libutils/ext/snprintk.c:339
    15d8:	17ffff8b 	b	1404 <kprintf+0x14c>
/home/ubuntu/phytium-linux-buildroot/output/build/phytium-optee-v3.2/optee_os/lib/libutils/ext/snprintk.c:346
    15dc:	b94053e0 	ldr	w0, [sp, #80]
    15e0:	32160000 	orr	w0, w0, #0x400
    15e4:	b90053e0 	str	w0, [sp, #80]
/home/ubuntu/phytium-linux-buildroot/output/build/phytium-optee-v3.2/optee_os/lib/libutils/ext/snprintk.c:347
    15e8:	17ffff82 	b	13f0 <kprintf+0x138>
/home/ubuntu/phytium-linux-buildroot/output/build/phytium-optee-v3.2/optee_os/lib/libutils/ext/snprintk.c:350
    15ec:	b9004fff 	str	wzr, [sp, #76]
/home/ubuntu/phytium-linux-buildroot/output/build/phytium-optee-v3.2/optee_os/lib/libutils/ext/snprintk.c:352 (discriminator 1)
    15f0:	b9404fe1 	ldr	w1, [sp, #76]
    15f4:	52800140 	mov	w0, #0xa                   	// #10
    15f8:	1b007c21 	mul	w1, w1, w0
    15fc:	b9404be0 	ldr	w0, [sp, #72]
    1600:	5100c000 	sub	w0, w0, #0x30
    1604:	0b000020 	add	w0, w1, w0
    1608:	b9004fe0 	str	w0, [sp, #76]
/home/ubuntu/phytium-linux-buildroot/output/build/phytium-optee-v3.2/optee_os/lib/libutils/ext/snprintk.c:353 (discriminator 1)
    160c:	f9403be0 	ldr	x0, [sp, #112]
    1610:	91000401 	add	x1, x0, #0x1
    1614:	f9003be1 	str	x1, [sp, #112]
    1618:	39400000 	ldrb	w0, [x0]
    161c:	b9004be0 	str	w0, [sp, #72]
/home/ubuntu/phytium-linux-buildroot/output/build/phytium-optee-v3.2/optee_os/lib/libutils/ext/snprintk.c:354 (discriminator 1)
    1620:	b9404be0 	ldr	w0, [sp, #72]
    1624:	5100c000 	sub	w0, w0, #0x30
    1628:	7100241f 	cmp	w0, #0x9
    162c:	54fffe29 	b.ls	15f0 <kprintf+0x338>  // b.plast
/home/ubuntu/phytium-linux-buildroot/output/build/phytium-optee-v3.2/optee_os/lib/libutils/ext/snprintk.c:355
    1630:	b9404fe0 	ldr	w0, [sp, #76]
    1634:	b9005be0 	str	w0, [sp, #88]
/home/ubuntu/phytium-linux-buildroot/output/build/phytium-optee-v3.2/optee_os/lib/libutils/ext/snprintk.c:356
    1638:	17ffff73 	b	1404 <kprintf+0x14c>
/home/ubuntu/phytium-linux-buildroot/output/build/phytium-optee-v3.2/optee_os/lib/libutils/ext/snprintk.c:358
    163c:	b94053e0 	ldr	w0, [sp, #80]
    1640:	321a0000 	orr	w0, w0, #0x40
    1644:	b90053e0 	str	w0, [sp, #80]
/home/ubuntu/phytium-linux-buildroot/output/build/phytium-optee-v3.2/optee_os/lib/libutils/ext/snprintk.c:359
    1648:	17ffff6a 	b	13f0 <kprintf+0x138>
/home/ubuntu/phytium-linux-buildroot/output/build/phytium-optee-v3.2/optee_os/lib/libutils/ext/snprintk.c:361
    164c:	b94053e0 	ldr	w0, [sp, #80]
    1650:	32190000 	orr	w0, w0, #0x80
    1654:	b90053e0 	str	w0, [sp, #80]
/home/ubuntu/phytium-linux-buildroot/output/build/phytium-optee-v3.2/optee_os/lib/libutils/ext/snprintk.c:362
    1658:	17ffff66 	b	13f0 <kprintf+0x138>
/home/ubuntu/phytium-linux-buildroot/output/build/phytium-optee-v3.2/optee_os/lib/libutils/ext/snprintk.c:364
    165c:	f9403be0 	ldr	x0, [sp, #112]
    1660:	39400000 	ldrb	w0, [x0]
    1664:	7101b01f 	cmp	w0, #0x6c
    1668:	54000101 	b.ne	1688 <kprintf+0x3d0>  // b.any
/home/ubuntu/phytium-linux-buildroot/output/build/phytium-optee-v3.2/optee_os/lib/libutils/ext/snprintk.c:365
    166c:	f9403be0 	ldr	x0, [sp, #112]
    1670:	91000400 	add	x0, x0, #0x1
    1674:	f9003be0 	str	x0, [sp, #112]
/home/ubuntu/phytium-linux-buildroot/output/build/phytium-optee-v3.2/optee_os/lib/libutils/ext/snprintk.c:366
    1678:	b94053e0 	ldr	w0, [sp, #80]
    167c:	321b0000 	orr	w0, w0, #0x20
    1680:	b90053e0 	str	w0, [sp, #80]
    1684:	17ffff5b 	b	13f0 <kprintf+0x138>
/home/ubuntu/phytium-linux-buildroot/output/build/phytium-optee-v3.2/optee_os/lib/libutils/ext/snprintk.c:368
    1688:	b94053e0 	ldr	w0, [sp, #80]
    168c:	321c0000 	orr	w0, w0, #0x10
    1690:	b90053e0 	str	w0, [sp, #80]
/home/ubuntu/phytium-linux-buildroot/output/build/phytium-optee-v3.2/optee_os/lib/libutils/ext/snprintk.c:370
    1694:	17ffff57 	b	13f0 <kprintf+0x138>
/home/ubuntu/phytium-linux-buildroot/output/build/phytium-optee-v3.2/optee_os/lib/libutils/ext/snprintk.c:372
    1698:	b94053e0 	ldr	w0, [sp, #80]
    169c:	321b0000 	orr	w0, w0, #0x20
    16a0:	b90053e0 	str	w0, [sp, #80]
/home/ubuntu/phytium-linux-buildroot/output/build/phytium-optee-v3.2/optee_os/lib/libutils/ext/snprintk.c:373
    16a4:	17ffff53 	b	13f0 <kprintf+0x138>
/home/ubuntu/phytium-linux-buildroot/output/build/phytium-optee-v3.2/optee_os/lib/libutils/ext/snprintk.c:375
    16a8:	b94053e0 	ldr	w0, [sp, #80]
    16ac:	32180000 	orr	w0, w0, #0x100
    16b0:	b90053e0 	str	w0, [sp, #80]
/home/ubuntu/phytium-linux-buildroot/output/build/phytium-optee-v3.2/optee_os/lib/libutils/ext/snprintk.c:376
    16b4:	17ffff4f 	b	13f0 <kprintf+0x138>
/home/ubuntu/phytium-linux-buildroot/output/build/phytium-optee-v3.2/optee_os/lib/libutils/ext/snprintk.c:378
    16b8:	b94053e0 	ldr	w0, [sp, #80]
    16bc:	32170000 	orr	w0, w0, #0x200
    16c0:	b90053e0 	str	w0, [sp, #80]
/home/ubuntu/phytium-linux-buildroot/output/build/phytium-optee-v3.2/optee_os/lib/libutils/ext/snprintk.c:379
    16c4:	17ffff4b 	b	13f0 <kprintf+0x138>
/home/ubuntu/phytium-linux-buildroot/output/build/phytium-optee-v3.2/optee_os/lib/libutils/ext/snprintk.c:381
    16c8:	b9401a61 	ldr	w1, [x19, #24]
    16cc:	f9400260 	ldr	x0, [x19]
    16d0:	7100003f 	cmp	w1, #0x0
    16d4:	540000ab 	b.lt	16e8 <kprintf+0x430>  // b.tstop
    16d8:	91002c01 	add	x1, x0, #0xb
    16dc:	927df021 	and	x1, x1, #0xfffffffffffffff8
    16e0:	f9000261 	str	x1, [x19]
    16e4:	1400000d 	b	1718 <kprintf+0x460>
    16e8:	11002022 	add	w2, w1, #0x8
    16ec:	b9001a62 	str	w2, [x19, #24]
    16f0:	b9401a62 	ldr	w2, [x19, #24]
    16f4:	7100005f 	cmp	w2, #0x0
    16f8:	540000ad 	b.le	170c <kprintf+0x454>
    16fc:	91002c01 	add	x1, x0, #0xb
    1700:	927df021 	and	x1, x1, #0xfffffffffffffff8
    1704:	f9000261 	str	x1, [x19]
    1708:	14000004 	b	1718 <kprintf+0x460>
    170c:	f9400662 	ldr	x2, [x19, #8]
    1710:	93407c20 	sxtw	x0, w1
    1714:	8b000040 	add	x0, x2, x0
    1718:	b9400001 	ldr	w1, [x0]
    171c:	910283e0 	add	x0, sp, #0xa0
    1720:	f9003fe0 	str	x0, [sp, #120]
    1724:	12001c21 	and	w1, w1, #0xff
    1728:	f9403fe0 	ldr	x0, [sp, #120]
    172c:	39000001 	strb	w1, [x0]
/home/ubuntu/phytium-linux-buildroot/output/build/phytium-optee-v3.2/optee_os/lib/libutils/ext/snprintk.c:382
    1730:	52800020 	mov	w0, #0x1                   	// #1
    1734:	b9006fe0 	str	w0, [sp, #108]
/home/ubuntu/phytium-linux-buildroot/output/build/phytium-optee-v3.2/optee_os/lib/libutils/ext/snprintk.c:383
    1738:	39011fff 	strb	wzr, [sp, #71]
/home/ubuntu/phytium-linux-buildroot/output/build/phytium-optee-v3.2/optee_os/lib/libutils/ext/snprintk.c:384
    173c:	140004e2 	b	2ac4 <kprintf+0x180c>
/home/ubuntu/phytium-linux-buildroot/output/build/phytium-optee-v3.2/optee_os/lib/libutils/ext/snprintk.c:386
    1740:	b94053e0 	ldr	w0, [sp, #80]
    1744:	321c0000 	orr	w0, w0, #0x10
    1748:	b90053e0 	str	w0, [sp, #80]
/home/ubuntu/phytium-linux-buildroot/output/build/phytium-optee-v3.2/optee_os/lib/libutils/ext/snprintk.c:390
    174c:	b94053e0 	ldr	w0, [sp, #80]
    1750:	12190000 	and	w0, w0, #0x80
    1754:	7100001f 	cmp	w0, #0x0
    1758:	540002e0 	b.eq	17b4 <kprintf+0x4fc>  // b.none
    175c:	b9401a61 	ldr	w1, [x19, #24]
    1760:	f9400260 	ldr	x0, [x19]
    1764:	7100003f 	cmp	w1, #0x0
    1768:	540000ab 	b.lt	177c <kprintf+0x4c4>  // b.tstop
    176c:	91003c01 	add	x1, x0, #0xf
    1770:	927df021 	and	x1, x1, #0xfffffffffffffff8
    1774:	f9000261 	str	x1, [x19]
    1778:	1400000d 	b	17ac <kprintf+0x4f4>
    177c:	11002022 	add	w2, w1, #0x8
    1780:	b9001a62 	str	w2, [x19, #24]
    1784:	b9401a62 	ldr	w2, [x19, #24]
    1788:	7100005f 	cmp	w2, #0x0
    178c:	540000ad 	b.le	17a0 <kprintf+0x4e8>
    1790:	91003c01 	add	x1, x0, #0xf
    1794:	927df021 	and	x1, x1, #0xfffffffffffffff8
    1798:	f9000261 	str	x1, [x19]
    179c:	14000004 	b	17ac <kprintf+0x4f4>
    17a0:	f9400662 	ldr	x2, [x19, #8]
    17a4:	93407c20 	sxtw	x0, w1
    17a8:	8b000040 	add	x0, x2, x0
    17ac:	f9400000 	ldr	x0, [x0]
    17b0:	1400009b 	b	1a1c <kprintf+0x764>
/home/ubuntu/phytium-linux-buildroot/output/build/phytium-optee-v3.2/optee_os/lib/libutils/ext/snprintk.c:390 (discriminator 2)
    17b4:	b94053e0 	ldr	w0, [sp, #80]
    17b8:	12180000 	and	w0, w0, #0x100
    17bc:	7100001f 	cmp	w0, #0x0
    17c0:	540002e0 	b.eq	181c <kprintf+0x564>  // b.none
/home/ubuntu/phytium-linux-buildroot/output/build/phytium-optee-v3.2/optee_os/lib/libutils/ext/snprintk.c:390
    17c4:	b9401a61 	ldr	w1, [x19, #24]
    17c8:	f9400260 	ldr	x0, [x19]
    17cc:	7100003f 	cmp	w1, #0x0
    17d0:	540000ab 	b.lt	17e4 <kprintf+0x52c>  // b.tstop
    17d4:	91003c01 	add	x1, x0, #0xf
    17d8:	927df021 	and	x1, x1, #0xfffffffffffffff8
    17dc:	f9000261 	str	x1, [x19]
    17e0:	1400000d 	b	1814 <kprintf+0x55c>
    17e4:	11002022 	add	w2, w1, #0x8
    17e8:	b9001a62 	str	w2, [x19, #24]
    17ec:	b9401a62 	ldr	w2, [x19, #24]
    17f0:	7100005f 	cmp	w2, #0x0
    17f4:	540000ad 	b.le	1808 <kprintf+0x550>
    17f8:	91003c01 	add	x1, x0, #0xf
    17fc:	927df021 	and	x1, x1, #0xfffffffffffffff8
    1800:	f9000261 	str	x1, [x19]
    1804:	14000004 	b	1814 <kprintf+0x55c>
    1808:	f9400662 	ldr	x2, [x19, #8]
    180c:	93407c20 	sxtw	x0, w1
    1810:	8b000040 	add	x0, x2, x0
    1814:	f9400000 	ldr	x0, [x0]
    1818:	14000081 	b	1a1c <kprintf+0x764>
/home/ubuntu/phytium-linux-buildroot/output/build/phytium-optee-v3.2/optee_os/lib/libutils/ext/snprintk.c:390 (discriminator 5)
    181c:	b94053e0 	ldr	w0, [sp, #80]
    1820:	12170000 	and	w0, w0, #0x200
    1824:	7100001f 	cmp	w0, #0x0
    1828:	540002e0 	b.eq	1884 <kprintf+0x5cc>  // b.none
/home/ubuntu/phytium-linux-buildroot/output/build/phytium-optee-v3.2/optee_os/lib/libutils/ext/snprintk.c:390
    182c:	b9401a61 	ldr	w1, [x19, #24]
    1830:	f9400260 	ldr	x0, [x19]
    1834:	7100003f 	cmp	w1, #0x0
    1838:	540000ab 	b.lt	184c <kprintf+0x594>  // b.tstop
    183c:	91003c01 	add	x1, x0, #0xf
    1840:	927df021 	and	x1, x1, #0xfffffffffffffff8
    1844:	f9000261 	str	x1, [x19]
    1848:	1400000d 	b	187c <kprintf+0x5c4>
    184c:	11002022 	add	w2, w1, #0x8
    1850:	b9001a62 	str	w2, [x19, #24]
    1854:	b9401a62 	ldr	w2, [x19, #24]
    1858:	7100005f 	cmp	w2, #0x0
    185c:	540000ad 	b.le	1870 <kprintf+0x5b8>
    1860:	91003c01 	add	x1, x0, #0xf
    1864:	927df021 	and	x1, x1, #0xfffffffffffffff8
    1868:	f9000261 	str	x1, [x19]
    186c:	14000004 	b	187c <kprintf+0x5c4>
    1870:	f9400662 	ldr	x2, [x19, #8]
    1874:	93407c20 	sxtw	x0, w1
    1878:	8b000040 	add	x0, x2, x0
    187c:	f9400000 	ldr	x0, [x0]
    1880:	14000067 	b	1a1c <kprintf+0x764>
/home/ubuntu/phytium-linux-buildroot/output/build/phytium-optee-v3.2/optee_os/lib/libutils/ext/snprintk.c:390 (discriminator 8)
    1884:	b94053e0 	ldr	w0, [sp, #80]
    1888:	121b0000 	and	w0, w0, #0x20
    188c:	7100001f 	cmp	w0, #0x0
    1890:	540002e0 	b.eq	18ec <kprintf+0x634>  // b.none
/home/ubuntu/phytium-linux-buildroot/output/build/phytium-optee-v3.2/optee_os/lib/libutils/ext/snprintk.c:390
    1894:	b9401a61 	ldr	w1, [x19, #24]
    1898:	f9400260 	ldr	x0, [x19]
    189c:	7100003f 	cmp	w1, #0x0
    18a0:	540000ab 	b.lt	18b4 <kprintf+0x5fc>  // b.tstop
    18a4:	91003c01 	add	x1, x0, #0xf
    18a8:	927df021 	and	x1, x1, #0xfffffffffffffff8
    18ac:	f9000261 	str	x1, [x19]
    18b0:	1400000d 	b	18e4 <kprintf+0x62c>
    18b4:	11002022 	add	w2, w1, #0x8
    18b8:	b9001a62 	str	w2, [x19, #24]
    18bc:	b9401a62 	ldr	w2, [x19, #24]
    18c0:	7100005f 	cmp	w2, #0x0
    18c4:	540000ad 	b.le	18d8 <kprintf+0x620>
    18c8:	91003c01 	add	x1, x0, #0xf
    18cc:	927df021 	and	x1, x1, #0xfffffffffffffff8
    18d0:	f9000261 	str	x1, [x19]
    18d4:	14000004 	b	18e4 <kprintf+0x62c>
    18d8:	f9400662 	ldr	x2, [x19, #8]
    18dc:	93407c20 	sxtw	x0, w1
    18e0:	8b000040 	add	x0, x2, x0
    18e4:	f9400000 	ldr	x0, [x0]
    18e8:	1400004d 	b	1a1c <kprintf+0x764>
/home/ubuntu/phytium-linux-buildroot/output/build/phytium-optee-v3.2/optee_os/lib/libutils/ext/snprintk.c:390 (discriminator 11)
    18ec:	b94053e0 	ldr	w0, [sp, #80]
    18f0:	121c0000 	and	w0, w0, #0x10
    18f4:	7100001f 	cmp	w0, #0x0
    18f8:	540002e0 	b.eq	1954 <kprintf+0x69c>  // b.none
/home/ubuntu/phytium-linux-buildroot/output/build/phytium-optee-v3.2/optee_os/lib/libutils/ext/snprintk.c:390
    18fc:	b9401a61 	ldr	w1, [x19, #24]
    1900:	f9400260 	ldr	x0, [x19]
    1904:	7100003f 	cmp	w1, #0x0
    1908:	540000ab 	b.lt	191c <kprintf+0x664>  // b.tstop
    190c:	91003c01 	add	x1, x0, #0xf
    1910:	927df021 	and	x1, x1, #0xfffffffffffffff8
    1914:	f9000261 	str	x1, [x19]
    1918:	1400000d 	b	194c <kprintf+0x694>
    191c:	11002022 	add	w2, w1, #0x8
    1920:	b9001a62 	str	w2, [x19, #24]
    1924:	b9401a62 	ldr	w2, [x19, #24]
    1928:	7100005f 	cmp	w2, #0x0
    192c:	540000ad 	b.le	1940 <kprintf+0x688>
    1930:	91003c01 	add	x1, x0, #0xf
    1934:	927df021 	and	x1, x1, #0xfffffffffffffff8
    1938:	f9000261 	str	x1, [x19]
    193c:	14000004 	b	194c <kprintf+0x694>
    1940:	f9400662 	ldr	x2, [x19, #8]
    1944:	93407c20 	sxtw	x0, w1
    1948:	8b000040 	add	x0, x2, x0
    194c:	f9400000 	ldr	x0, [x0]
    1950:	14000033 	b	1a1c <kprintf+0x764>
/home/ubuntu/phytium-linux-buildroot/output/build/phytium-optee-v3.2/optee_os/lib/libutils/ext/snprintk.c:390 (discriminator 14)
    1954:	b94053e0 	ldr	w0, [sp, #80]
    1958:	121a0000 	and	w0, w0, #0x40
    195c:	7100001f 	cmp	w0, #0x0
    1960:	54000320 	b.eq	19c4 <kprintf+0x70c>  // b.none
/home/ubuntu/phytium-linux-buildroot/output/build/phytium-optee-v3.2/optee_os/lib/libutils/ext/snprintk.c:390
    1964:	b9401a61 	ldr	w1, [x19, #24]
    1968:	f9400260 	ldr	x0, [x19]
    196c:	7100003f 	cmp	w1, #0x0
    1970:	540000ab 	b.lt	1984 <kprintf+0x6cc>  // b.tstop
    1974:	91002c01 	add	x1, x0, #0xb
    1978:	927df021 	and	x1, x1, #0xfffffffffffffff8
    197c:	f9000261 	str	x1, [x19]
    1980:	1400000d 	b	19b4 <kprintf+0x6fc>
    1984:	11002022 	add	w2, w1, #0x8
    1988:	b9001a62 	str	w2, [x19, #24]
    198c:	b9401a62 	ldr	w2, [x19, #24]
    1990:	7100005f 	cmp	w2, #0x0
    1994:	540000ad 	b.le	19a8 <kprintf+0x6f0>
    1998:	91002c01 	add	x1, x0, #0xb
    199c:	927df021 	and	x1, x1, #0xfffffffffffffff8
    19a0:	f9000261 	str	x1, [x19]
    19a4:	14000004 	b	19b4 <kprintf+0x6fc>
    19a8:	f9400662 	ldr	x2, [x19, #8]
    19ac:	93407c20 	sxtw	x0, w1
    19b0:	8b000040 	add	x0, x2, x0
    19b4:	b9400000 	ldr	w0, [x0]
    19b8:	13003c00 	sxth	w0, w0
    19bc:	93403c00 	sxth	x0, w0
    19c0:	14000017 	b	1a1c <kprintf+0x764>
    19c4:	b9401a61 	ldr	w1, [x19, #24]
    19c8:	f9400260 	ldr	x0, [x19]
    19cc:	7100003f 	cmp	w1, #0x0
    19d0:	540000ab 	b.lt	19e4 <kprintf+0x72c>  // b.tstop
    19d4:	91002c01 	add	x1, x0, #0xb
    19d8:	927df021 	and	x1, x1, #0xfffffffffffffff8
    19dc:	f9000261 	str	x1, [x19]
    19e0:	1400000d 	b	1a14 <kprintf+0x75c>
    19e4:	11002022 	add	w2, w1, #0x8
    19e8:	b9001a62 	str	w2, [x19, #24]
    19ec:	b9401a62 	ldr	w2, [x19, #24]
    19f0:	7100005f 	cmp	w2, #0x0
    19f4:	540000ad 	b.le	1a08 <kprintf+0x750>
    19f8:	91002c01 	add	x1, x0, #0xb
    19fc:	927df021 	and	x1, x1, #0xfffffffffffffff8
    1a00:	f9000261 	str	x1, [x19]
    1a04:	14000004 	b	1a14 <kprintf+0x75c>
    1a08:	f9400662 	ldr	x2, [x19, #8]
    1a0c:	93407c20 	sxtw	x0, w1
    1a10:	8b000040 	add	x0, x2, x0
    1a14:	b9400000 	ldr	w0, [x0]
    1a18:	93407c00 	sxtw	x0, w0
/home/ubuntu/phytium-linux-buildroot/output/build/phytium-optee-v3.2/optee_os/lib/libutils/ext/snprintk.c:390 (discriminator 24)
    1a1c:	f90043e0 	str	x0, [sp, #128]
/home/ubuntu/phytium-linux-buildroot/output/build/phytium-optee-v3.2/optee_os/lib/libutils/ext/snprintk.c:391 (discriminator 24)
    1a20:	f94043e0 	ldr	x0, [sp, #128]
    1a24:	f100001f 	cmp	x0, #0x0
    1a28:	540000ca 	b.ge	1a40 <kprintf+0x788>  // b.tcont
/home/ubuntu/phytium-linux-buildroot/output/build/phytium-optee-v3.2/optee_os/lib/libutils/ext/snprintk.c:392
    1a2c:	f94043e0 	ldr	x0, [sp, #128]
    1a30:	cb0003e0 	neg	x0, x0
    1a34:	f90043e0 	str	x0, [sp, #128]
/home/ubuntu/phytium-linux-buildroot/output/build/phytium-optee-v3.2/optee_os/lib/libutils/ext/snprintk.c:393
    1a38:	528005a0 	mov	w0, #0x2d                  	// #45
    1a3c:	39011fe0 	strb	w0, [sp, #71]
/home/ubuntu/phytium-linux-buildroot/output/build/phytium-optee-v3.2/optee_os/lib/libutils/ext/snprintk.c:395
    1a40:	52800020 	mov	w0, #0x1                   	// #1
    1a44:	b90063e0 	str	w0, [sp, #96]
/home/ubuntu/phytium-linux-buildroot/output/build/phytium-optee-v3.2/optee_os/lib/libutils/ext/snprintk.c:396
    1a48:	1400038b 	b	2874 <kprintf+0x15bc>
/home/ubuntu/phytium-linux-buildroot/output/build/phytium-optee-v3.2/optee_os/lib/libutils/ext/snprintk.c:398
    1a4c:	b94053e0 	ldr	w0, [sp, #80]
    1a50:	12190000 	and	w0, w0, #0x80
    1a54:	7100001f 	cmp	w0, #0x0
    1a58:	54000320 	b.eq	1abc <kprintf+0x804>  // b.none
/home/ubuntu/phytium-linux-buildroot/output/build/phytium-optee-v3.2/optee_os/lib/libutils/ext/snprintk.c:399
    1a5c:	b9401a61 	ldr	w1, [x19, #24]
    1a60:	f9400260 	ldr	x0, [x19]
    1a64:	7100003f 	cmp	w1, #0x0
    1a68:	540000ab 	b.lt	1a7c <kprintf+0x7c4>  // b.tstop
    1a6c:	91003c01 	add	x1, x0, #0xf
    1a70:	927df021 	and	x1, x1, #0xfffffffffffffff8
    1a74:	f9000261 	str	x1, [x19]
    1a78:	1400000d 	b	1aac <kprintf+0x7f4>
    1a7c:	11002022 	add	w2, w1, #0x8
    1a80:	b9001a62 	str	w2, [x19, #24]
    1a84:	b9401a62 	ldr	w2, [x19, #24]
    1a88:	7100005f 	cmp	w2, #0x0
    1a8c:	540000ad 	b.le	1aa0 <kprintf+0x7e8>
    1a90:	91003c01 	add	x1, x0, #0xf
    1a94:	927df021 	and	x1, x1, #0xfffffffffffffff8
    1a98:	f9000261 	str	x1, [x19]
    1a9c:	14000004 	b	1aac <kprintf+0x7f4>
    1aa0:	f9400662 	ldr	x2, [x19, #8]
    1aa4:	93407c20 	sxtw	x0, w1
    1aa8:	8b000040 	add	x0, x2, x0
    1aac:	f9400000 	ldr	x0, [x0]
    1ab0:	b98057e1 	ldrsw	x1, [sp, #84]
    1ab4:	f9000001 	str	x1, [x0]
/home/ubuntu/phytium-linux-buildroot/output/build/phytium-optee-v3.2/optee_os/lib/libutils/ext/snprintk.c:412
    1ab8:	140004f8 	b	2e98 <kprintf+0x1be0>
/home/ubuntu/phytium-linux-buildroot/output/build/phytium-optee-v3.2/optee_os/lib/libutils/ext/snprintk.c:400
    1abc:	b94053e0 	ldr	w0, [sp, #80]
    1ac0:	12180000 	and	w0, w0, #0x100
    1ac4:	7100001f 	cmp	w0, #0x0
    1ac8:	54000320 	b.eq	1b2c <kprintf+0x874>  // b.none
/home/ubuntu/phytium-linux-buildroot/output/build/phytium-optee-v3.2/optee_os/lib/libutils/ext/snprintk.c:401
    1acc:	b9401a61 	ldr	w1, [x19, #24]
    1ad0:	f9400260 	ldr	x0, [x19]
    1ad4:	7100003f 	cmp	w1, #0x0
    1ad8:	540000ab 	b.lt	1aec <kprintf+0x834>  // b.tstop
    1adc:	91003c01 	add	x1, x0, #0xf
    1ae0:	927df021 	and	x1, x1, #0xfffffffffffffff8
    1ae4:	f9000261 	str	x1, [x19]
    1ae8:	1400000d 	b	1b1c <kprintf+0x864>
    1aec:	11002022 	add	w2, w1, #0x8
    1af0:	b9001a62 	str	w2, [x19, #24]
    1af4:	b9401a62 	ldr	w2, [x19, #24]
    1af8:	7100005f 	cmp	w2, #0x0
    1afc:	540000ad 	b.le	1b10 <kprintf+0x858>
    1b00:	91003c01 	add	x1, x0, #0xf
    1b04:	927df021 	and	x1, x1, #0xfffffffffffffff8
    1b08:	f9000261 	str	x1, [x19]
    1b0c:	14000004 	b	1b1c <kprintf+0x864>
    1b10:	f9400662 	ldr	x2, [x19, #8]
    1b14:	93407c20 	sxtw	x0, w1
    1b18:	8b000040 	add	x0, x2, x0
    1b1c:	f9400000 	ldr	x0, [x0]
    1b20:	b98057e1 	ldrsw	x1, [sp, #84]
    1b24:	f9000001 	str	x1, [x0]
/home/ubuntu/phytium-linux-buildroot/output/build/phytium-optee-v3.2/optee_os/lib/libutils/ext/snprintk.c:412
    1b28:	140004dc 	b	2e98 <kprintf+0x1be0>
/home/ubuntu/phytium-linux-buildroot/output/build/phytium-optee-v3.2/optee_os/lib/libutils/ext/snprintk.c:402
    1b2c:	b94053e0 	ldr	w0, [sp, #80]
    1b30:	12170000 	and	w0, w0, #0x200
    1b34:	7100001f 	cmp	w0, #0x0
    1b38:	54000320 	b.eq	1b9c <kprintf+0x8e4>  // b.none
/home/ubuntu/phytium-linux-buildroot/output/build/phytium-optee-v3.2/optee_os/lib/libutils/ext/snprintk.c:403
    1b3c:	b9401a61 	ldr	w1, [x19, #24]
    1b40:	f9400260 	ldr	x0, [x19]
    1b44:	7100003f 	cmp	w1, #0x0
    1b48:	540000ab 	b.lt	1b5c <kprintf+0x8a4>  // b.tstop
    1b4c:	91003c01 	add	x1, x0, #0xf
    1b50:	927df021 	and	x1, x1, #0xfffffffffffffff8
    1b54:	f9000261 	str	x1, [x19]
    1b58:	1400000d 	b	1b8c <kprintf+0x8d4>
    1b5c:	11002022 	add	w2, w1, #0x8
    1b60:	b9001a62 	str	w2, [x19, #24]
    1b64:	b9401a62 	ldr	w2, [x19, #24]
    1b68:	7100005f 	cmp	w2, #0x0
    1b6c:	540000ad 	b.le	1b80 <kprintf+0x8c8>
    1b70:	91003c01 	add	x1, x0, #0xf
    1b74:	927df021 	and	x1, x1, #0xfffffffffffffff8
    1b78:	f9000261 	str	x1, [x19]
    1b7c:	14000004 	b	1b8c <kprintf+0x8d4>
    1b80:	f9400662 	ldr	x2, [x19, #8]
    1b84:	93407c20 	sxtw	x0, w1
    1b88:	8b000040 	add	x0, x2, x0
    1b8c:	f9400000 	ldr	x0, [x0]
    1b90:	b98057e1 	ldrsw	x1, [sp, #84]
    1b94:	f9000001 	str	x1, [x0]
/home/ubuntu/phytium-linux-buildroot/output/build/phytium-optee-v3.2/optee_os/lib/libutils/ext/snprintk.c:412
    1b98:	140004c0 	b	2e98 <kprintf+0x1be0>
/home/ubuntu/phytium-linux-buildroot/output/build/phytium-optee-v3.2/optee_os/lib/libutils/ext/snprintk.c:404
    1b9c:	b94053e0 	ldr	w0, [sp, #80]
    1ba0:	121b0000 	and	w0, w0, #0x20
    1ba4:	7100001f 	cmp	w0, #0x0
    1ba8:	54000320 	b.eq	1c0c <kprintf+0x954>  // b.none
/home/ubuntu/phytium-linux-buildroot/output/build/phytium-optee-v3.2/optee_os/lib/libutils/ext/snprintk.c:405
    1bac:	b9401a61 	ldr	w1, [x19, #24]
    1bb0:	f9400260 	ldr	x0, [x19]
    1bb4:	7100003f 	cmp	w1, #0x0
    1bb8:	540000ab 	b.lt	1bcc <kprintf+0x914>  // b.tstop
    1bbc:	91003c01 	add	x1, x0, #0xf
    1bc0:	927df021 	and	x1, x1, #0xfffffffffffffff8
    1bc4:	f9000261 	str	x1, [x19]
    1bc8:	1400000d 	b	1bfc <kprintf+0x944>
    1bcc:	11002022 	add	w2, w1, #0x8
    1bd0:	b9001a62 	str	w2, [x19, #24]
    1bd4:	b9401a62 	ldr	w2, [x19, #24]
    1bd8:	7100005f 	cmp	w2, #0x0
    1bdc:	540000ad 	b.le	1bf0 <kprintf+0x938>
    1be0:	91003c01 	add	x1, x0, #0xf
    1be4:	927df021 	and	x1, x1, #0xfffffffffffffff8
    1be8:	f9000261 	str	x1, [x19]
    1bec:	14000004 	b	1bfc <kprintf+0x944>
    1bf0:	f9400662 	ldr	x2, [x19, #8]
    1bf4:	93407c20 	sxtw	x0, w1
    1bf8:	8b000040 	add	x0, x2, x0
    1bfc:	f9400000 	ldr	x0, [x0]
    1c00:	b98057e1 	ldrsw	x1, [sp, #84]
    1c04:	f9000001 	str	x1, [x0]
/home/ubuntu/phytium-linux-buildroot/output/build/phytium-optee-v3.2/optee_os/lib/libutils/ext/snprintk.c:412
    1c08:	140004a4 	b	2e98 <kprintf+0x1be0>
/home/ubuntu/phytium-linux-buildroot/output/build/phytium-optee-v3.2/optee_os/lib/libutils/ext/snprintk.c:406
    1c0c:	b94053e0 	ldr	w0, [sp, #80]
    1c10:	121c0000 	and	w0, w0, #0x10
    1c14:	7100001f 	cmp	w0, #0x0
    1c18:	54000320 	b.eq	1c7c <kprintf+0x9c4>  // b.none
/home/ubuntu/phytium-linux-buildroot/output/build/phytium-optee-v3.2/optee_os/lib/libutils/ext/snprintk.c:407
    1c1c:	b9401a61 	ldr	w1, [x19, #24]
    1c20:	f9400260 	ldr	x0, [x19]
    1c24:	7100003f 	cmp	w1, #0x0
    1c28:	540000ab 	b.lt	1c3c <kprintf+0x984>  // b.tstop
    1c2c:	91003c01 	add	x1, x0, #0xf
    1c30:	927df021 	and	x1, x1, #0xfffffffffffffff8
    1c34:	f9000261 	str	x1, [x19]
    1c38:	1400000d 	b	1c6c <kprintf+0x9b4>
    1c3c:	11002022 	add	w2, w1, #0x8
    1c40:	b9001a62 	str	w2, [x19, #24]
    1c44:	b9401a62 	ldr	w2, [x19, #24]
    1c48:	7100005f 	cmp	w2, #0x0
    1c4c:	540000ad 	b.le	1c60 <kprintf+0x9a8>
    1c50:	91003c01 	add	x1, x0, #0xf
    1c54:	927df021 	and	x1, x1, #0xfffffffffffffff8
    1c58:	f9000261 	str	x1, [x19]
    1c5c:	14000004 	b	1c6c <kprintf+0x9b4>
    1c60:	f9400662 	ldr	x2, [x19, #8]
    1c64:	93407c20 	sxtw	x0, w1
    1c68:	8b000040 	add	x0, x2, x0
    1c6c:	f9400000 	ldr	x0, [x0]
    1c70:	b98057e1 	ldrsw	x1, [sp, #84]
    1c74:	f9000001 	str	x1, [x0]
/home/ubuntu/phytium-linux-buildroot/output/build/phytium-optee-v3.2/optee_os/lib/libutils/ext/snprintk.c:412
    1c78:	14000488 	b	2e98 <kprintf+0x1be0>
/home/ubuntu/phytium-linux-buildroot/output/build/phytium-optee-v3.2/optee_os/lib/libutils/ext/snprintk.c:408
    1c7c:	b94053e0 	ldr	w0, [sp, #80]
    1c80:	121a0000 	and	w0, w0, #0x40
    1c84:	7100001f 	cmp	w0, #0x0
    1c88:	54000340 	b.eq	1cf0 <kprintf+0xa38>  // b.none
/home/ubuntu/phytium-linux-buildroot/output/build/phytium-optee-v3.2/optee_os/lib/libutils/ext/snprintk.c:409
    1c8c:	b9401a61 	ldr	w1, [x19, #24]
    1c90:	f9400260 	ldr	x0, [x19]
    1c94:	7100003f 	cmp	w1, #0x0
    1c98:	540000ab 	b.lt	1cac <kprintf+0x9f4>  // b.tstop
    1c9c:	91003c01 	add	x1, x0, #0xf
    1ca0:	927df021 	and	x1, x1, #0xfffffffffffffff8
    1ca4:	f9000261 	str	x1, [x19]
    1ca8:	1400000d 	b	1cdc <kprintf+0xa24>
    1cac:	11002022 	add	w2, w1, #0x8
    1cb0:	b9001a62 	str	w2, [x19, #24]
    1cb4:	b9401a62 	ldr	w2, [x19, #24]
    1cb8:	7100005f 	cmp	w2, #0x0
    1cbc:	540000ad 	b.le	1cd0 <kprintf+0xa18>
    1cc0:	91003c01 	add	x1, x0, #0xf
    1cc4:	927df021 	and	x1, x1, #0xfffffffffffffff8
    1cc8:	f9000261 	str	x1, [x19]
    1ccc:	14000004 	b	1cdc <kprintf+0xa24>
    1cd0:	f9400662 	ldr	x2, [x19, #8]
    1cd4:	93407c20 	sxtw	x0, w1
    1cd8:	8b000040 	add	x0, x2, x0
    1cdc:	f9400000 	ldr	x0, [x0]
    1ce0:	b94057e1 	ldr	w1, [sp, #84]
    1ce4:	13003c21 	sxth	w1, w1
    1ce8:	79000001 	strh	w1, [x0]
/home/ubuntu/phytium-linux-buildroot/output/build/phytium-optee-v3.2/optee_os/lib/libutils/ext/snprintk.c:412
    1cec:	1400046b 	b	2e98 <kprintf+0x1be0>
/home/ubuntu/phytium-linux-buildroot/output/build/phytium-optee-v3.2/optee_os/lib/libutils/ext/snprintk.c:411
    1cf0:	b9401a61 	ldr	w1, [x19, #24]
    1cf4:	f9400260 	ldr	x0, [x19]
    1cf8:	7100003f 	cmp	w1, #0x0
    1cfc:	540000ab 	b.lt	1d10 <kprintf+0xa58>  // b.tstop
    1d00:	91003c01 	add	x1, x0, #0xf
    1d04:	927df021 	and	x1, x1, #0xfffffffffffffff8
    1d08:	f9000261 	str	x1, [x19]
    1d0c:	1400000d 	b	1d40 <kprintf+0xa88>
    1d10:	11002022 	add	w2, w1, #0x8
    1d14:	b9001a62 	str	w2, [x19, #24]
    1d18:	b9401a62 	ldr	w2, [x19, #24]
    1d1c:	7100005f 	cmp	w2, #0x0
    1d20:	540000ad 	b.le	1d34 <kprintf+0xa7c>
    1d24:	91003c01 	add	x1, x0, #0xf
    1d28:	927df021 	and	x1, x1, #0xfffffffffffffff8
    1d2c:	f9000261 	str	x1, [x19]
    1d30:	14000004 	b	1d40 <kprintf+0xa88>
    1d34:	f9400662 	ldr	x2, [x19, #8]
    1d38:	93407c20 	sxtw	x0, w1
    1d3c:	8b000040 	add	x0, x2, x0
    1d40:	f9400000 	ldr	x0, [x0]
    1d44:	b94057e1 	ldr	w1, [sp, #84]
    1d48:	b9000001 	str	w1, [x0]
/home/ubuntu/phytium-linux-buildroot/output/build/phytium-optee-v3.2/optee_os/lib/libutils/ext/snprintk.c:412
    1d4c:	14000453 	b	2e98 <kprintf+0x1be0>
/home/ubuntu/phytium-linux-buildroot/output/build/phytium-optee-v3.2/optee_os/lib/libutils/ext/snprintk.c:414
    1d50:	b94053e0 	ldr	w0, [sp, #80]
    1d54:	321c0000 	orr	w0, w0, #0x10
    1d58:	b90053e0 	str	w0, [sp, #80]
/home/ubuntu/phytium-linux-buildroot/output/build/phytium-optee-v3.2/optee_os/lib/libutils/ext/snprintk.c:417
    1d5c:	b94053e0 	ldr	w0, [sp, #80]
    1d60:	12190000 	and	w0, w0, #0x80
    1d64:	7100001f 	cmp	w0, #0x0
    1d68:	540002e0 	b.eq	1dc4 <kprintf+0xb0c>  // b.none
    1d6c:	b9401a61 	ldr	w1, [x19, #24]
    1d70:	f9400260 	ldr	x0, [x19]
    1d74:	7100003f 	cmp	w1, #0x0
    1d78:	540000ab 	b.lt	1d8c <kprintf+0xad4>  // b.tstop
    1d7c:	91003c01 	add	x1, x0, #0xf
    1d80:	927df021 	and	x1, x1, #0xfffffffffffffff8
    1d84:	f9000261 	str	x1, [x19]
    1d88:	1400000d 	b	1dbc <kprintf+0xb04>
    1d8c:	11002022 	add	w2, w1, #0x8
    1d90:	b9001a62 	str	w2, [x19, #24]
    1d94:	b9401a62 	ldr	w2, [x19, #24]
    1d98:	7100005f 	cmp	w2, #0x0
    1d9c:	540000ad 	b.le	1db0 <kprintf+0xaf8>
    1da0:	91003c01 	add	x1, x0, #0xf
    1da4:	927df021 	and	x1, x1, #0xfffffffffffffff8
    1da8:	f9000261 	str	x1, [x19]
    1dac:	14000004 	b	1dbc <kprintf+0xb04>
    1db0:	f9400662 	ldr	x2, [x19, #8]
    1db4:	93407c20 	sxtw	x0, w1
    1db8:	8b000040 	add	x0, x2, x0
    1dbc:	f9400000 	ldr	x0, [x0]
    1dc0:	1400009b 	b	202c <kprintf+0xd74>
/home/ubuntu/phytium-linux-buildroot/output/build/phytium-optee-v3.2/optee_os/lib/libutils/ext/snprintk.c:417 (discriminator 2)
    1dc4:	b94053e0 	ldr	w0, [sp, #80]
    1dc8:	12180000 	and	w0, w0, #0x100
    1dcc:	7100001f 	cmp	w0, #0x0
    1dd0:	540002e0 	b.eq	1e2c <kprintf+0xb74>  // b.none
/home/ubuntu/phytium-linux-buildroot/output/build/phytium-optee-v3.2/optee_os/lib/libutils/ext/snprintk.c:417
    1dd4:	b9401a61 	ldr	w1, [x19, #24]
    1dd8:	f9400260 	ldr	x0, [x19]
    1ddc:	7100003f 	cmp	w1, #0x0
    1de0:	540000ab 	b.lt	1df4 <kprintf+0xb3c>  // b.tstop
    1de4:	91003c01 	add	x1, x0, #0xf
    1de8:	927df021 	and	x1, x1, #0xfffffffffffffff8
    1dec:	f9000261 	str	x1, [x19]
    1df0:	1400000d 	b	1e24 <kprintf+0xb6c>
    1df4:	11002022 	add	w2, w1, #0x8
    1df8:	b9001a62 	str	w2, [x19, #24]
    1dfc:	b9401a62 	ldr	w2, [x19, #24]
    1e00:	7100005f 	cmp	w2, #0x0
    1e04:	540000ad 	b.le	1e18 <kprintf+0xb60>
    1e08:	91003c01 	add	x1, x0, #0xf
    1e0c:	927df021 	and	x1, x1, #0xfffffffffffffff8
    1e10:	f9000261 	str	x1, [x19]
    1e14:	14000004 	b	1e24 <kprintf+0xb6c>
    1e18:	f9400662 	ldr	x2, [x19, #8]
    1e1c:	93407c20 	sxtw	x0, w1
    1e20:	8b000040 	add	x0, x2, x0
    1e24:	f9400000 	ldr	x0, [x0]
    1e28:	14000081 	b	202c <kprintf+0xd74>
/home/ubuntu/phytium-linux-buildroot/output/build/phytium-optee-v3.2/optee_os/lib/libutils/ext/snprintk.c:417 (discriminator 5)
    1e2c:	b94053e0 	ldr	w0, [sp, #80]
    1e30:	12170000 	and	w0, w0, #0x200
    1e34:	7100001f 	cmp	w0, #0x0
    1e38:	540002e0 	b.eq	1e94 <kprintf+0xbdc>  // b.none
/home/ubuntu/phytium-linux-buildroot/output/build/phytium-optee-v3.2/optee_os/lib/libutils/ext/snprintk.c:417
    1e3c:	b9401a61 	ldr	w1, [x19, #24]
    1e40:	f9400260 	ldr	x0, [x19]
    1e44:	7100003f 	cmp	w1, #0x0
    1e48:	540000ab 	b.lt	1e5c <kprintf+0xba4>  // b.tstop
    1e4c:	91003c01 	add	x1, x0, #0xf
    1e50:	927df021 	and	x1, x1, #0xfffffffffffffff8
    1e54:	f9000261 	str	x1, [x19]
    1e58:	1400000d 	b	1e8c <kprintf+0xbd4>
    1e5c:	11002022 	add	w2, w1, #0x8
    1e60:	b9001a62 	str	w2, [x19, #24]
    1e64:	b9401a62 	ldr	w2, [x19, #24]
    1e68:	7100005f 	cmp	w2, #0x0
    1e6c:	540000ad 	b.le	1e80 <kprintf+0xbc8>
    1e70:	91003c01 	add	x1, x0, #0xf
    1e74:	927df021 	and	x1, x1, #0xfffffffffffffff8
    1e78:	f9000261 	str	x1, [x19]
    1e7c:	14000004 	b	1e8c <kprintf+0xbd4>
    1e80:	f9400662 	ldr	x2, [x19, #8]
    1e84:	93407c20 	sxtw	x0, w1
    1e88:	8b000040 	add	x0, x2, x0
    1e8c:	f9400000 	ldr	x0, [x0]
    1e90:	14000067 	b	202c <kprintf+0xd74>
/home/ubuntu/phytium-linux-buildroot/output/build/phytium-optee-v3.2/optee_os/lib/libutils/ext/snprintk.c:417 (discriminator 8)
    1e94:	b94053e0 	ldr	w0, [sp, #80]
    1e98:	121b0000 	and	w0, w0, #0x20
    1e9c:	7100001f 	cmp	w0, #0x0
    1ea0:	540002e0 	b.eq	1efc <kprintf+0xc44>  // b.none
/home/ubuntu/phytium-linux-buildroot/output/build/phytium-optee-v3.2/optee_os/lib/libutils/ext/snprintk.c:417
    1ea4:	b9401a61 	ldr	w1, [x19, #24]
    1ea8:	f9400260 	ldr	x0, [x19]
    1eac:	7100003f 	cmp	w1, #0x0
    1eb0:	540000ab 	b.lt	1ec4 <kprintf+0xc0c>  // b.tstop
    1eb4:	91003c01 	add	x1, x0, #0xf
    1eb8:	927df021 	and	x1, x1, #0xfffffffffffffff8
    1ebc:	f9000261 	str	x1, [x19]
    1ec0:	1400000d 	b	1ef4 <kprintf+0xc3c>
    1ec4:	11002022 	add	w2, w1, #0x8
    1ec8:	b9001a62 	str	w2, [x19, #24]
    1ecc:	b9401a62 	ldr	w2, [x19, #24]
    1ed0:	7100005f 	cmp	w2, #0x0
    1ed4:	540000ad 	b.le	1ee8 <kprintf+0xc30>
    1ed8:	91003c01 	add	x1, x0, #0xf
    1edc:	927df021 	and	x1, x1, #0xfffffffffffffff8
    1ee0:	f9000261 	str	x1, [x19]
    1ee4:	14000004 	b	1ef4 <kprintf+0xc3c>
    1ee8:	f9400662 	ldr	x2, [x19, #8]
    1eec:	93407c20 	sxtw	x0, w1
    1ef0:	8b000040 	add	x0, x2, x0
    1ef4:	f9400000 	ldr	x0, [x0]
    1ef8:	1400004d 	b	202c <kprintf+0xd74>
/home/ubuntu/phytium-linux-buildroot/output/build/phytium-optee-v3.2/optee_os/lib/libutils/ext/snprintk.c:417 (discriminator 11)
    1efc:	b94053e0 	ldr	w0, [sp, #80]
    1f00:	121c0000 	and	w0, w0, #0x10
    1f04:	7100001f 	cmp	w0, #0x0
    1f08:	540002e0 	b.eq	1f64 <kprintf+0xcac>  // b.none
/home/ubuntu/phytium-linux-buildroot/output/build/phytium-optee-v3.2/optee_os/lib/libutils/ext/snprintk.c:417
    1f0c:	b9401a61 	ldr	w1, [x19, #24]
    1f10:	f9400260 	ldr	x0, [x19]
    1f14:	7100003f 	cmp	w1, #0x0
    1f18:	540000ab 	b.lt	1f2c <kprintf+0xc74>  // b.tstop
    1f1c:	91003c01 	add	x1, x0, #0xf
    1f20:	927df021 	and	x1, x1, #0xfffffffffffffff8
    1f24:	f9000261 	str	x1, [x19]
    1f28:	1400000d 	b	1f5c <kprintf+0xca4>
    1f2c:	11002022 	add	w2, w1, #0x8
    1f30:	b9001a62 	str	w2, [x19, #24]
    1f34:	b9401a62 	ldr	w2, [x19, #24]
    1f38:	7100005f 	cmp	w2, #0x0
    1f3c:	540000ad 	b.le	1f50 <kprintf+0xc98>
    1f40:	91003c01 	add	x1, x0, #0xf
    1f44:	927df021 	and	x1, x1, #0xfffffffffffffff8
    1f48:	f9000261 	str	x1, [x19]
    1f4c:	14000004 	b	1f5c <kprintf+0xca4>
    1f50:	f9400662 	ldr	x2, [x19, #8]
    1f54:	93407c20 	sxtw	x0, w1
    1f58:	8b000040 	add	x0, x2, x0
    1f5c:	f9400000 	ldr	x0, [x0]
    1f60:	14000033 	b	202c <kprintf+0xd74>
/home/ubuntu/phytium-linux-buildroot/output/build/phytium-optee-v3.2/optee_os/lib/libutils/ext/snprintk.c:417 (discriminator 14)
    1f64:	b94053e0 	ldr	w0, [sp, #80]
    1f68:	121a0000 	and	w0, w0, #0x40
    1f6c:	7100001f 	cmp	w0, #0x0
    1f70:	54000320 	b.eq	1fd4 <kprintf+0xd1c>  // b.none
/home/ubuntu/phytium-linux-buildroot/output/build/phytium-optee-v3.2/optee_os/lib/libutils/ext/snprintk.c:417
    1f74:	b9401a61 	ldr	w1, [x19, #24]
    1f78:	f9400260 	ldr	x0, [x19]
    1f7c:	7100003f 	cmp	w1, #0x0
    1f80:	540000ab 	b.lt	1f94 <kprintf+0xcdc>  // b.tstop
    1f84:	91002c01 	add	x1, x0, #0xb
    1f88:	927df021 	and	x1, x1, #0xfffffffffffffff8
    1f8c:	f9000261 	str	x1, [x19]
    1f90:	1400000d 	b	1fc4 <kprintf+0xd0c>
    1f94:	11002022 	add	w2, w1, #0x8
    1f98:	b9001a62 	str	w2, [x19, #24]
    1f9c:	b9401a62 	ldr	w2, [x19, #24]
    1fa0:	7100005f 	cmp	w2, #0x0
    1fa4:	540000ad 	b.le	1fb8 <kprintf+0xd00>
    1fa8:	91002c01 	add	x1, x0, #0xb
    1fac:	927df021 	and	x1, x1, #0xfffffffffffffff8
    1fb0:	f9000261 	str	x1, [x19]
    1fb4:	14000004 	b	1fc4 <kprintf+0xd0c>
    1fb8:	f9400662 	ldr	x2, [x19, #8]
    1fbc:	93407c20 	sxtw	x0, w1
    1fc0:	8b000040 	add	x0, x2, x0
    1fc4:	b9400000 	ldr	w0, [x0]
    1fc8:	12003c00 	and	w0, w0, #0xffff
    1fcc:	92403c00 	and	x0, x0, #0xffff
    1fd0:	14000017 	b	202c <kprintf+0xd74>
    1fd4:	b9401a61 	ldr	w1, [x19, #24]
    1fd8:	f9400260 	ldr	x0, [x19]
    1fdc:	7100003f 	cmp	w1, #0x0
    1fe0:	540000ab 	b.lt	1ff4 <kprintf+0xd3c>  // b.tstop
    1fe4:	91002c01 	add	x1, x0, #0xb
    1fe8:	927df021 	and	x1, x1, #0xfffffffffffffff8
    1fec:	f9000261 	str	x1, [x19]
    1ff0:	1400000d 	b	2024 <kprintf+0xd6c>
    1ff4:	11002022 	add	w2, w1, #0x8
    1ff8:	b9001a62 	str	w2, [x19, #24]
    1ffc:	b9401a62 	ldr	w2, [x19, #24]
    2000:	7100005f 	cmp	w2, #0x0
    2004:	540000ad 	b.le	2018 <kprintf+0xd60>
    2008:	91002c01 	add	x1, x0, #0xb
    200c:	927df021 	and	x1, x1, #0xfffffffffffffff8
    2010:	f9000261 	str	x1, [x19]
    2014:	14000004 	b	2024 <kprintf+0xd6c>
    2018:	f9400662 	ldr	x2, [x19, #8]
    201c:	93407c20 	sxtw	x0, w1
    2020:	8b000040 	add	x0, x2, x0
    2024:	b9400000 	ldr	w0, [x0]
    2028:	2a0003e0 	mov	w0, w0
/home/ubuntu/phytium-linux-buildroot/output/build/phytium-optee-v3.2/optee_os/lib/libutils/ext/snprintk.c:417 (discriminator 24)
    202c:	f90043e0 	str	x0, [sp, #128]
/home/ubuntu/phytium-linux-buildroot/output/build/phytium-optee-v3.2/optee_os/lib/libutils/ext/snprintk.c:418 (discriminator 24)
    2030:	b90063ff 	str	wzr, [sp, #96]
/home/ubuntu/phytium-linux-buildroot/output/build/phytium-optee-v3.2/optee_os/lib/libutils/ext/snprintk.c:419 (discriminator 24)
    2034:	1400020f 	b	2870 <kprintf+0x15b8>
/home/ubuntu/phytium-linux-buildroot/output/build/phytium-optee-v3.2/optee_os/lib/libutils/ext/snprintk.c:421
    2038:	3940cfe0 	ldrb	w0, [sp, #51]
    203c:	7100001f 	cmp	w0, #0x0
    2040:	54000560 	b.eq	20ec <kprintf+0xe34>  // b.none
/home/ubuntu/phytium-linux-buildroot/output/build/phytium-optee-v3.2/optee_os/lib/libutils/ext/snprintk.c:421 (discriminator 1)
    2044:	f9403be0 	ldr	x0, [sp, #112]
    2048:	39400000 	ldrb	w0, [x0]
    204c:	7101541f 	cmp	w0, #0x55
    2050:	540004e1 	b.ne	20ec <kprintf+0xe34>  // b.any
/home/ubuntu/phytium-linux-buildroot/output/build/phytium-optee-v3.2/optee_os/lib/libutils/ext/snprintk.c:421 (discriminator 2)
    2054:	f9403be0 	ldr	x0, [sp, #112]
    2058:	91000400 	add	x0, x0, #0x1
    205c:	39400000 	ldrb	w0, [x0]
    2060:	7101b01f 	cmp	w0, #0x6c
    2064:	54000441 	b.ne	20ec <kprintf+0xe34>  // b.any
/home/ubuntu/phytium-linux-buildroot/output/build/phytium-optee-v3.2/optee_os/lib/libutils/ext/snprintk.c:426
    2068:	f9403be0 	ldr	x0, [sp, #112]
    206c:	91000800 	add	x0, x0, #0x2
    2070:	f9003be0 	str	x0, [sp, #112]
/home/ubuntu/phytium-linux-buildroot/output/build/phytium-optee-v3.2/optee_os/lib/libutils/ext/snprintk.c:427
    2074:	b9401a61 	ldr	w1, [x19, #24]
    2078:	f9400260 	ldr	x0, [x19]
    207c:	7100003f 	cmp	w1, #0x0
    2080:	540000ab 	b.lt	2094 <kprintf+0xddc>  // b.tstop
    2084:	91003c01 	add	x1, x0, #0xf
    2088:	927df021 	and	x1, x1, #0xfffffffffffffff8
    208c:	f9000261 	str	x1, [x19]
    2090:	1400000d 	b	20c4 <kprintf+0xe0c>
    2094:	11002022 	add	w2, w1, #0x8
    2098:	b9001a62 	str	w2, [x19, #24]
    209c:	b9401a62 	ldr	w2, [x19, #24]
    20a0:	7100005f 	cmp	w2, #0x0
    20a4:	540000ad 	b.le	20b8 <kprintf+0xe00>
    20a8:	91003c01 	add	x1, x0, #0xf
    20ac:	927df021 	and	x1, x1, #0xfffffffffffffff8
    20b0:	f9000261 	str	x1, [x19]
    20b4:	14000004 	b	20c4 <kprintf+0xe0c>
    20b8:	f9400662 	ldr	x2, [x19, #8]
    20bc:	93407c20 	sxtw	x0, w1
    20c0:	8b000040 	add	x0, x2, x0
    20c4:	f9400001 	ldr	x1, [x0]
    20c8:	910283e0 	add	x0, sp, #0xa0
    20cc:	aa0103e2 	mov	x2, x1
    20d0:	d28004a1 	mov	x1, #0x25                  	// #37
    20d4:	97fffc40 	bl	11d4 <uuid2str>
    20d8:	b9006fe0 	str	w0, [sp, #108]
/home/ubuntu/phytium-linux-buildroot/output/build/phytium-optee-v3.2/optee_os/lib/libutils/ext/snprintk.c:429
    20dc:	910283e0 	add	x0, sp, #0xa0
    20e0:	f9003fe0 	str	x0, [sp, #120]
/home/ubuntu/phytium-linux-buildroot/output/build/phytium-optee-v3.2/optee_os/lib/libutils/ext/snprintk.c:430
    20e4:	39011fff 	strb	wzr, [sp, #71]
/home/ubuntu/phytium-linux-buildroot/output/build/phytium-optee-v3.2/optee_os/lib/libutils/ext/snprintk.c:431
    20e8:	14000277 	b	2ac4 <kprintf+0x180c>
/home/ubuntu/phytium-linux-buildroot/output/build/phytium-optee-v3.2/optee_os/lib/libutils/ext/snprintk.c:441
    20ec:	b9401a61 	ldr	w1, [x19, #24]
    20f0:	f9400260 	ldr	x0, [x19]
    20f4:	7100003f 	cmp	w1, #0x0
    20f8:	540000ab 	b.lt	210c <kprintf+0xe54>  // b.tstop
    20fc:	91003c01 	add	x1, x0, #0xf
    2100:	927df021 	and	x1, x1, #0xfffffffffffffff8
    2104:	f9000261 	str	x1, [x19]
    2108:	1400000d 	b	213c <kprintf+0xe84>
    210c:	11002022 	add	w2, w1, #0x8
    2110:	b9001a62 	str	w2, [x19, #24]
    2114:	b9401a62 	ldr	w2, [x19, #24]
    2118:	7100005f 	cmp	w2, #0x0
    211c:	540000ad 	b.le	2130 <kprintf+0xe78>
    2120:	91003c01 	add	x1, x0, #0xf
    2124:	927df021 	and	x1, x1, #0xfffffffffffffff8
    2128:	f9000261 	str	x1, [x19]
    212c:	14000004 	b	213c <kprintf+0xe84>
    2130:	f9400662 	ldr	x2, [x19, #8]
    2134:	93407c20 	sxtw	x0, w1
    2138:	8b000040 	add	x0, x2, x0
    213c:	f9400000 	ldr	x0, [x0]
    2140:	f90043e0 	str	x0, [sp, #128]
/home/ubuntu/phytium-linux-buildroot/output/build/phytium-optee-v3.2/optee_os/lib/libutils/ext/snprintk.c:442
    2144:	52800040 	mov	w0, #0x2                   	// #2
    2148:	b90063e0 	str	w0, [sp, #96]
/home/ubuntu/phytium-linux-buildroot/output/build/phytium-optee-v3.2/optee_os/lib/libutils/ext/snprintk.c:443
    214c:	f00000c0 	adrp	x0, 1d000 <__text_end+0x2c18>
    2150:	912b4000 	add	x0, x0, #0xad0
    2154:	f90047e0 	str	x0, [sp, #136]
/home/ubuntu/phytium-linux-buildroot/output/build/phytium-optee-v3.2/optee_os/lib/libutils/ext/snprintk.c:444
    2158:	b94053e0 	ldr	w0, [sp, #80]
    215c:	321f0000 	orr	w0, w0, #0x2
    2160:	b90053e0 	str	w0, [sp, #80]
/home/ubuntu/phytium-linux-buildroot/output/build/phytium-optee-v3.2/optee_os/lib/libutils/ext/snprintk.c:445
    2164:	52800f00 	mov	w0, #0x78                  	// #120
    2168:	b9004be0 	str	w0, [sp, #72]
/home/ubuntu/phytium-linux-buildroot/output/build/phytium-optee-v3.2/optee_os/lib/libutils/ext/snprintk.c:446
    216c:	140001c1 	b	2870 <kprintf+0x15b8>
/home/ubuntu/phytium-linux-buildroot/output/build/phytium-optee-v3.2/optee_os/lib/libutils/ext/snprintk.c:448
    2170:	b9401a61 	ldr	w1, [x19, #24]
    2174:	f9400260 	ldr	x0, [x19]
    2178:	7100003f 	cmp	w1, #0x0
    217c:	540000ab 	b.lt	2190 <kprintf+0xed8>  // b.tstop
    2180:	91003c01 	add	x1, x0, #0xf
    2184:	927df021 	and	x1, x1, #0xfffffffffffffff8
    2188:	f9000261 	str	x1, [x19]
    218c:	1400000d 	b	21c0 <kprintf+0xf08>
    2190:	11002022 	add	w2, w1, #0x8
    2194:	b9001a62 	str	w2, [x19, #24]
    2198:	b9401a62 	ldr	w2, [x19, #24]
    219c:	7100005f 	cmp	w2, #0x0
    21a0:	540000ad 	b.le	21b4 <kprintf+0xefc>
    21a4:	91003c01 	add	x1, x0, #0xf
    21a8:	927df021 	and	x1, x1, #0xfffffffffffffff8
    21ac:	f9000261 	str	x1, [x19]
    21b0:	14000004 	b	21c0 <kprintf+0xf08>
    21b4:	f9400662 	ldr	x2, [x19, #8]
    21b8:	93407c20 	sxtw	x0, w1
    21bc:	8b000040 	add	x0, x2, x0
    21c0:	f9400000 	ldr	x0, [x0]
    21c4:	f9003fe0 	str	x0, [sp, #120]
    21c8:	f9403fe0 	ldr	x0, [sp, #120]
    21cc:	f100001f 	cmp	x0, #0x0
    21d0:	54000081 	b.ne	21e0 <kprintf+0xf28>  // b.any
/home/ubuntu/phytium-linux-buildroot/output/build/phytium-optee-v3.2/optee_os/lib/libutils/ext/snprintk.c:450
    21d4:	f00000c0 	adrp	x0, 1d000 <__text_end+0x2c18>
    21d8:	912ce000 	add	x0, x0, #0xb38
    21dc:	f9003fe0 	str	x0, [sp, #120]
/home/ubuntu/phytium-linux-buildroot/output/build/phytium-optee-v3.2/optee_os/lib/libutils/ext/snprintk.c:451
    21e0:	b9405fe0 	ldr	w0, [sp, #92]
    21e4:	7100001f 	cmp	w0, #0x0
    21e8:	5400030b 	b.lt	2248 <kprintf+0xf90>  // b.tstop
/home/ubuntu/phytium-linux-buildroot/output/build/phytium-optee-v3.2/optee_os/lib/libutils/ext/snprintk.c:457
    21ec:	b9805fe0 	ldrsw	x0, [sp, #92]
    21f0:	aa0003e2 	mov	x2, x0
    21f4:	52800001 	mov	w1, #0x0                   	// #0
    21f8:	f9403fe0 	ldr	x0, [sp, #120]
    21fc:	94000342 	bl	2f04 <memchr>
    2200:	f9004fe0 	str	x0, [sp, #152]
/home/ubuntu/phytium-linux-buildroot/output/build/phytium-optee-v3.2/optee_os/lib/libutils/ext/snprintk.c:459
    2204:	f9404fe0 	ldr	x0, [sp, #152]
    2208:	f100001f 	cmp	x0, #0x0
    220c:	54000180 	b.eq	223c <kprintf+0xf84>  // b.none
/home/ubuntu/phytium-linux-buildroot/output/build/phytium-optee-v3.2/optee_os/lib/libutils/ext/snprintk.c:460
    2210:	f9404fe1 	ldr	x1, [sp, #152]
    2214:	f9403fe0 	ldr	x0, [sp, #120]
    2218:	cb000020 	sub	x0, x1, x0
    221c:	b9006fe0 	str	w0, [sp, #108]
/home/ubuntu/phytium-linux-buildroot/output/build/phytium-optee-v3.2/optee_os/lib/libutils/ext/snprintk.c:461
    2220:	b9406fe1 	ldr	w1, [sp, #108]
    2224:	b9405fe0 	ldr	w0, [sp, #92]
    2228:	6b00003f 	cmp	w1, w0
    222c:	5400014d 	b.le	2254 <kprintf+0xf9c>
/home/ubuntu/phytium-linux-buildroot/output/build/phytium-optee-v3.2/optee_os/lib/libutils/ext/snprintk.c:462
    2230:	b9405fe0 	ldr	w0, [sp, #92]
    2234:	b9006fe0 	str	w0, [sp, #108]
    2238:	14000007 	b	2254 <kprintf+0xf9c>
/home/ubuntu/phytium-linux-buildroot/output/build/phytium-optee-v3.2/optee_os/lib/libutils/ext/snprintk.c:464
    223c:	b9405fe0 	ldr	w0, [sp, #92]
    2240:	b9006fe0 	str	w0, [sp, #108]
    2244:	14000004 	b	2254 <kprintf+0xf9c>
/home/ubuntu/phytium-linux-buildroot/output/build/phytium-optee-v3.2/optee_os/lib/libutils/ext/snprintk.c:466
    2248:	f9403fe0 	ldr	x0, [sp, #120]
    224c:	9400039c 	bl	30bc <strlen>
    2250:	b9006fe0 	str	w0, [sp, #108]
/home/ubuntu/phytium-linux-buildroot/output/build/phytium-optee-v3.2/optee_os/lib/libutils/ext/snprintk.c:467
    2254:	39011fff 	strb	wzr, [sp, #71]
/home/ubuntu/phytium-linux-buildroot/output/build/phytium-optee-v3.2/optee_os/lib/libutils/ext/snprintk.c:468
    2258:	1400021b 	b	2ac4 <kprintf+0x180c>
/home/ubuntu/phytium-linux-buildroot/output/build/phytium-optee-v3.2/optee_os/lib/libutils/ext/snprintk.c:470
    225c:	b94053e0 	ldr	w0, [sp, #80]
    2260:	321c0000 	orr	w0, w0, #0x10
    2264:	b90053e0 	str	w0, [sp, #80]
/home/ubuntu/phytium-linux-buildroot/output/build/phytium-optee-v3.2/optee_os/lib/libutils/ext/snprintk.c:473
    2268:	b94053e0 	ldr	w0, [sp, #80]
    226c:	12190000 	and	w0, w0, #0x80
    2270:	7100001f 	cmp	w0, #0x0
    2274:	540002e0 	b.eq	22d0 <kprintf+0x1018>  // b.none
    2278:	b9401a61 	ldr	w1, [x19, #24]
    227c:	f9400260 	ldr	x0, [x19]
    2280:	7100003f 	cmp	w1, #0x0
    2284:	540000ab 	b.lt	2298 <kprintf+0xfe0>  // b.tstop
    2288:	91003c01 	add	x1, x0, #0xf
    228c:	927df021 	and	x1, x1, #0xfffffffffffffff8
    2290:	f9000261 	str	x1, [x19]
    2294:	1400000d 	b	22c8 <kprintf+0x1010>
    2298:	11002022 	add	w2, w1, #0x8
    229c:	b9001a62 	str	w2, [x19, #24]
    22a0:	b9401a62 	ldr	w2, [x19, #24]
    22a4:	7100005f 	cmp	w2, #0x0
    22a8:	540000ad 	b.le	22bc <kprintf+0x1004>
    22ac:	91003c01 	add	x1, x0, #0xf
    22b0:	927df021 	and	x1, x1, #0xfffffffffffffff8
    22b4:	f9000261 	str	x1, [x19]
    22b8:	14000004 	b	22c8 <kprintf+0x1010>
    22bc:	f9400662 	ldr	x2, [x19, #8]
    22c0:	93407c20 	sxtw	x0, w1
    22c4:	8b000040 	add	x0, x2, x0
    22c8:	f9400000 	ldr	x0, [x0]
    22cc:	1400009b 	b	2538 <kprintf+0x1280>
/home/ubuntu/phytium-linux-buildroot/output/build/phytium-optee-v3.2/optee_os/lib/libutils/ext/snprintk.c:473 (discriminator 2)
    22d0:	b94053e0 	ldr	w0, [sp, #80]
    22d4:	12180000 	and	w0, w0, #0x100
    22d8:	7100001f 	cmp	w0, #0x0
    22dc:	540002e0 	b.eq	2338 <kprintf+0x1080>  // b.none
/home/ubuntu/phytium-linux-buildroot/output/build/phytium-optee-v3.2/optee_os/lib/libutils/ext/snprintk.c:473
    22e0:	b9401a61 	ldr	w1, [x19, #24]
    22e4:	f9400260 	ldr	x0, [x19]
    22e8:	7100003f 	cmp	w1, #0x0
    22ec:	540000ab 	b.lt	2300 <kprintf+0x1048>  // b.tstop
    22f0:	91003c01 	add	x1, x0, #0xf
    22f4:	927df021 	and	x1, x1, #0xfffffffffffffff8
    22f8:	f9000261 	str	x1, [x19]
    22fc:	1400000d 	b	2330 <kprintf+0x1078>
    2300:	11002022 	add	w2, w1, #0x8
    2304:	b9001a62 	str	w2, [x19, #24]
    2308:	b9401a62 	ldr	w2, [x19, #24]
    230c:	7100005f 	cmp	w2, #0x0
    2310:	540000ad 	b.le	2324 <kprintf+0x106c>
    2314:	91003c01 	add	x1, x0, #0xf
    2318:	927df021 	and	x1, x1, #0xfffffffffffffff8
    231c:	f9000261 	str	x1, [x19]
    2320:	14000004 	b	2330 <kprintf+0x1078>
    2324:	f9400662 	ldr	x2, [x19, #8]
    2328:	93407c20 	sxtw	x0, w1
    232c:	8b000040 	add	x0, x2, x0
    2330:	f9400000 	ldr	x0, [x0]
    2334:	14000081 	b	2538 <kprintf+0x1280>
/home/ubuntu/phytium-linux-buildroot/output/build/phytium-optee-v3.2/optee_os/lib/libutils/ext/snprintk.c:473 (discriminator 5)
    2338:	b94053e0 	ldr	w0, [sp, #80]
    233c:	12170000 	and	w0, w0, #0x200
    2340:	7100001f 	cmp	w0, #0x0
    2344:	540002e0 	b.eq	23a0 <kprintf+0x10e8>  // b.none
/home/ubuntu/phytium-linux-buildroot/output/build/phytium-optee-v3.2/optee_os/lib/libutils/ext/snprintk.c:473
    2348:	b9401a61 	ldr	w1, [x19, #24]
    234c:	f9400260 	ldr	x0, [x19]
    2350:	7100003f 	cmp	w1, #0x0
    2354:	540000ab 	b.lt	2368 <kprintf+0x10b0>  // b.tstop
    2358:	91003c01 	add	x1, x0, #0xf
    235c:	927df021 	and	x1, x1, #0xfffffffffffffff8
    2360:	f9000261 	str	x1, [x19]
    2364:	1400000d 	b	2398 <kprintf+0x10e0>
    2368:	11002022 	add	w2, w1, #0x8
    236c:	b9001a62 	str	w2, [x19, #24]
    2370:	b9401a62 	ldr	w2, [x19, #24]
    2374:	7100005f 	cmp	w2, #0x0
    2378:	540000ad 	b.le	238c <kprintf+0x10d4>
    237c:	91003c01 	add	x1, x0, #0xf
    2380:	927df021 	and	x1, x1, #0xfffffffffffffff8
    2384:	f9000261 	str	x1, [x19]
    2388:	14000004 	b	2398 <kprintf+0x10e0>
    238c:	f9400662 	ldr	x2, [x19, #8]
    2390:	93407c20 	sxtw	x0, w1
    2394:	8b000040 	add	x0, x2, x0
    2398:	f9400000 	ldr	x0, [x0]
    239c:	14000067 	b	2538 <kprintf+0x1280>
/home/ubuntu/phytium-linux-buildroot/output/build/phytium-optee-v3.2/optee_os/lib/libutils/ext/snprintk.c:473 (discriminator 8)
    23a0:	b94053e0 	ldr	w0, [sp, #80]
    23a4:	121b0000 	and	w0, w0, #0x20
    23a8:	7100001f 	cmp	w0, #0x0
    23ac:	540002e0 	b.eq	2408 <kprintf+0x1150>  // b.none
/home/ubuntu/phytium-linux-buildroot/output/build/phytium-optee-v3.2/optee_os/lib/libutils/ext/snprintk.c:473
    23b0:	b9401a61 	ldr	w1, [x19, #24]
    23b4:	f9400260 	ldr	x0, [x19]
    23b8:	7100003f 	cmp	w1, #0x0
    23bc:	540000ab 	b.lt	23d0 <kprintf+0x1118>  // b.tstop
    23c0:	91003c01 	add	x1, x0, #0xf
    23c4:	927df021 	and	x1, x1, #0xfffffffffffffff8
    23c8:	f9000261 	str	x1, [x19]
    23cc:	1400000d 	b	2400 <kprintf+0x1148>
    23d0:	11002022 	add	w2, w1, #0x8
    23d4:	b9001a62 	str	w2, [x19, #24]
    23d8:	b9401a62 	ldr	w2, [x19, #24]
    23dc:	7100005f 	cmp	w2, #0x0
    23e0:	540000ad 	b.le	23f4 <kprintf+0x113c>
    23e4:	91003c01 	add	x1, x0, #0xf
    23e8:	927df021 	and	x1, x1, #0xfffffffffffffff8
    23ec:	f9000261 	str	x1, [x19]
    23f0:	14000004 	b	2400 <kprintf+0x1148>
    23f4:	f9400662 	ldr	x2, [x19, #8]
    23f8:	93407c20 	sxtw	x0, w1
    23fc:	8b000040 	add	x0, x2, x0
    2400:	f9400000 	ldr	x0, [x0]
    2404:	1400004d 	b	2538 <kprintf+0x1280>
/home/ubuntu/phytium-linux-buildroot/output/build/phytium-optee-v3.2/optee_os/lib/libutils/ext/snprintk.c:473 (discriminator 11)
    2408:	b94053e0 	ldr	w0, [sp, #80]
    240c:	121c0000 	and	w0, w0, #0x10
    2410:	7100001f 	cmp	w0, #0x0
    2414:	540002e0 	b.eq	2470 <kprintf+0x11b8>  // b.none
/home/ubuntu/phytium-linux-buildroot/output/build/phytium-optee-v3.2/optee_os/lib/libutils/ext/snprintk.c:473
    2418:	b9401a61 	ldr	w1, [x19, #24]
    241c:	f9400260 	ldr	x0, [x19]
    2420:	7100003f 	cmp	w1, #0x0
    2424:	540000ab 	b.lt	2438 <kprintf+0x1180>  // b.tstop
    2428:	91003c01 	add	x1, x0, #0xf
    242c:	927df021 	and	x1, x1, #0xfffffffffffffff8
    2430:	f9000261 	str	x1, [x19]
    2434:	1400000d 	b	2468 <kprintf+0x11b0>
    2438:	11002022 	add	w2, w1, #0x8
    243c:	b9001a62 	str	w2, [x19, #24]
    2440:	b9401a62 	ldr	w2, [x19, #24]
    2444:	7100005f 	cmp	w2, #0x0
    2448:	540000ad 	b.le	245c <kprintf+0x11a4>
    244c:	91003c01 	add	x1, x0, #0xf
    2450:	927df021 	and	x1, x1, #0xfffffffffffffff8
    2454:	f9000261 	str	x1, [x19]
    2458:	14000004 	b	2468 <kprintf+0x11b0>
    245c:	f9400662 	ldr	x2, [x19, #8]
    2460:	93407c20 	sxtw	x0, w1
    2464:	8b000040 	add	x0, x2, x0
    2468:	f9400000 	ldr	x0, [x0]
    246c:	14000033 	b	2538 <kprintf+0x1280>
/home/ubuntu/phytium-linux-buildroot/output/build/phytium-optee-v3.2/optee_os/lib/libutils/ext/snprintk.c:473 (discriminator 14)
    2470:	b94053e0 	ldr	w0, [sp, #80]
    2474:	121a0000 	and	w0, w0, #0x40
    2478:	7100001f 	cmp	w0, #0x0
    247c:	54000320 	b.eq	24e0 <kprintf+0x1228>  // b.none
/home/ubuntu/phytium-linux-buildroot/output/build/phytium-optee-v3.2/optee_os/lib/libutils/ext/snprintk.c:473
    2480:	b9401a61 	ldr	w1, [x19, #24]
    2484:	f9400260 	ldr	x0, [x19]
    2488:	7100003f 	cmp	w1, #0x0
    248c:	540000ab 	b.lt	24a0 <kprintf+0x11e8>  // b.tstop
    2490:	91002c01 	add	x1, x0, #0xb
    2494:	927df021 	and	x1, x1, #0xfffffffffffffff8
    2498:	f9000261 	str	x1, [x19]
    249c:	1400000d 	b	24d0 <kprintf+0x1218>
    24a0:	11002022 	add	w2, w1, #0x8
    24a4:	b9001a62 	str	w2, [x19, #24]
    24a8:	b9401a62 	ldr	w2, [x19, #24]
    24ac:	7100005f 	cmp	w2, #0x0
    24b0:	540000ad 	b.le	24c4 <kprintf+0x120c>
    24b4:	91002c01 	add	x1, x0, #0xb
    24b8:	927df021 	and	x1, x1, #0xfffffffffffffff8
    24bc:	f9000261 	str	x1, [x19]
    24c0:	14000004 	b	24d0 <kprintf+0x1218>
    24c4:	f9400662 	ldr	x2, [x19, #8]
    24c8:	93407c20 	sxtw	x0, w1
    24cc:	8b000040 	add	x0, x2, x0
    24d0:	b9400000 	ldr	w0, [x0]
    24d4:	12003c00 	and	w0, w0, #0xffff
    24d8:	92403c00 	and	x0, x0, #0xffff
    24dc:	14000017 	b	2538 <kprintf+0x1280>
    24e0:	b9401a61 	ldr	w1, [x19, #24]
    24e4:	f9400260 	ldr	x0, [x19]
    24e8:	7100003f 	cmp	w1, #0x0
    24ec:	540000ab 	b.lt	2500 <kprintf+0x1248>  // b.tstop
    24f0:	91002c01 	add	x1, x0, #0xb
    24f4:	927df021 	and	x1, x1, #0xfffffffffffffff8
    24f8:	f9000261 	str	x1, [x19]
    24fc:	1400000d 	b	2530 <kprintf+0x1278>
    2500:	11002022 	add	w2, w1, #0x8
    2504:	b9001a62 	str	w2, [x19, #24]
    2508:	b9401a62 	ldr	w2, [x19, #24]
    250c:	7100005f 	cmp	w2, #0x0
    2510:	540000ad 	b.le	2524 <kprintf+0x126c>
    2514:	91002c01 	add	x1, x0, #0xb
    2518:	927df021 	and	x1, x1, #0xfffffffffffffff8
    251c:	f9000261 	str	x1, [x19]
    2520:	14000004 	b	2530 <kprintf+0x1278>
    2524:	f9400662 	ldr	x2, [x19, #8]
    2528:	93407c20 	sxtw	x0, w1
    252c:	8b000040 	add	x0, x2, x0
    2530:	b9400000 	ldr	w0, [x0]
    2534:	2a0003e0 	mov	w0, w0
/home/ubuntu/phytium-linux-buildroot/output/build/phytium-optee-v3.2/optee_os/lib/libutils/ext/snprintk.c:473 (discriminator 24)
    2538:	f90043e0 	str	x0, [sp, #128]
/home/ubuntu/phytium-linux-buildroot/output/build/phytium-optee-v3.2/optee_os/lib/libutils/ext/snprintk.c:474 (discriminator 24)
    253c:	52800020 	mov	w0, #0x1                   	// #1
    2540:	b90063e0 	str	w0, [sp, #96]
/home/ubuntu/phytium-linux-buildroot/output/build/phytium-optee-v3.2/optee_os/lib/libutils/ext/snprintk.c:475 (discriminator 24)
    2544:	140000cb 	b	2870 <kprintf+0x15b8>
/home/ubuntu/phytium-linux-buildroot/output/build/phytium-optee-v3.2/optee_os/lib/libutils/ext/snprintk.c:477
    2548:	f00000c0 	adrp	x0, 1d000 <__text_end+0x2c18>
    254c:	912ba000 	add	x0, x0, #0xae8
    2550:	f90047e0 	str	x0, [sp, #136]
/home/ubuntu/phytium-linux-buildroot/output/build/phytium-optee-v3.2/optee_os/lib/libutils/ext/snprintk.c:478
    2554:	14000004 	b	2564 <kprintf+0x12ac>
/home/ubuntu/phytium-linux-buildroot/output/build/phytium-optee-v3.2/optee_os/lib/libutils/ext/snprintk.c:480
    2558:	f00000c0 	adrp	x0, 1d000 <__text_end+0x2c18>
    255c:	912b4000 	add	x0, x0, #0xad0
    2560:	f90047e0 	str	x0, [sp, #136]
/home/ubuntu/phytium-linux-buildroot/output/build/phytium-optee-v3.2/optee_os/lib/libutils/ext/snprintk.c:481
    2564:	b94053e0 	ldr	w0, [sp, #80]
    2568:	12190000 	and	w0, w0, #0x80
    256c:	7100001f 	cmp	w0, #0x0
    2570:	540002e0 	b.eq	25cc <kprintf+0x1314>  // b.none
    2574:	b9401a61 	ldr	w1, [x19, #24]
    2578:	f9400260 	ldr	x0, [x19]
    257c:	7100003f 	cmp	w1, #0x0
    2580:	540000ab 	b.lt	2594 <kprintf+0x12dc>  // b.tstop
    2584:	91003c01 	add	x1, x0, #0xf
    2588:	927df021 	and	x1, x1, #0xfffffffffffffff8
    258c:	f9000261 	str	x1, [x19]
    2590:	1400000d 	b	25c4 <kprintf+0x130c>
    2594:	11002022 	add	w2, w1, #0x8
    2598:	b9001a62 	str	w2, [x19, #24]
    259c:	b9401a62 	ldr	w2, [x19, #24]
    25a0:	7100005f 	cmp	w2, #0x0
    25a4:	540000ad 	b.le	25b8 <kprintf+0x1300>
    25a8:	91003c01 	add	x1, x0, #0xf
    25ac:	927df021 	and	x1, x1, #0xfffffffffffffff8
    25b0:	f9000261 	str	x1, [x19]
    25b4:	14000004 	b	25c4 <kprintf+0x130c>
    25b8:	f9400662 	ldr	x2, [x19, #8]
    25bc:	93407c20 	sxtw	x0, w1
    25c0:	8b000040 	add	x0, x2, x0
    25c4:	f9400000 	ldr	x0, [x0]
    25c8:	1400009b 	b	2834 <kprintf+0x157c>
/home/ubuntu/phytium-linux-buildroot/output/build/phytium-optee-v3.2/optee_os/lib/libutils/ext/snprintk.c:481 (discriminator 2)
    25cc:	b94053e0 	ldr	w0, [sp, #80]
    25d0:	12180000 	and	w0, w0, #0x100
    25d4:	7100001f 	cmp	w0, #0x0
    25d8:	540002e0 	b.eq	2634 <kprintf+0x137c>  // b.none
/home/ubuntu/phytium-linux-buildroot/output/build/phytium-optee-v3.2/optee_os/lib/libutils/ext/snprintk.c:481
    25dc:	b9401a61 	ldr	w1, [x19, #24]
    25e0:	f9400260 	ldr	x0, [x19]
    25e4:	7100003f 	cmp	w1, #0x0
    25e8:	540000ab 	b.lt	25fc <kprintf+0x1344>  // b.tstop
    25ec:	91003c01 	add	x1, x0, #0xf
    25f0:	927df021 	and	x1, x1, #0xfffffffffffffff8
    25f4:	f9000261 	str	x1, [x19]
    25f8:	1400000d 	b	262c <kprintf+0x1374>
    25fc:	11002022 	add	w2, w1, #0x8
    2600:	b9001a62 	str	w2, [x19, #24]
    2604:	b9401a62 	ldr	w2, [x19, #24]
    2608:	7100005f 	cmp	w2, #0x0
    260c:	540000ad 	b.le	2620 <kprintf+0x1368>
    2610:	91003c01 	add	x1, x0, #0xf
    2614:	927df021 	and	x1, x1, #0xfffffffffffffff8
    2618:	f9000261 	str	x1, [x19]
    261c:	14000004 	b	262c <kprintf+0x1374>
    2620:	f9400662 	ldr	x2, [x19, #8]
    2624:	93407c20 	sxtw	x0, w1
    2628:	8b000040 	add	x0, x2, x0
    262c:	f9400000 	ldr	x0, [x0]
    2630:	14000081 	b	2834 <kprintf+0x157c>
/home/ubuntu/phytium-linux-buildroot/output/build/phytium-optee-v3.2/optee_os/lib/libutils/ext/snprintk.c:481 (discriminator 5)
    2634:	b94053e0 	ldr	w0, [sp, #80]
    2638:	12170000 	and	w0, w0, #0x200
    263c:	7100001f 	cmp	w0, #0x0
    2640:	540002e0 	b.eq	269c <kprintf+0x13e4>  // b.none
/home/ubuntu/phytium-linux-buildroot/output/build/phytium-optee-v3.2/optee_os/lib/libutils/ext/snprintk.c:481
    2644:	b9401a61 	ldr	w1, [x19, #24]
    2648:	f9400260 	ldr	x0, [x19]
    264c:	7100003f 	cmp	w1, #0x0
    2650:	540000ab 	b.lt	2664 <kprintf+0x13ac>  // b.tstop
    2654:	91003c01 	add	x1, x0, #0xf
    2658:	927df021 	and	x1, x1, #0xfffffffffffffff8
    265c:	f9000261 	str	x1, [x19]
    2660:	1400000d 	b	2694 <kprintf+0x13dc>
    2664:	11002022 	add	w2, w1, #0x8
    2668:	b9001a62 	str	w2, [x19, #24]
    266c:	b9401a62 	ldr	w2, [x19, #24]
    2670:	7100005f 	cmp	w2, #0x0
    2674:	540000ad 	b.le	2688 <kprintf+0x13d0>
    2678:	91003c01 	add	x1, x0, #0xf
    267c:	927df021 	and	x1, x1, #0xfffffffffffffff8
    2680:	f9000261 	str	x1, [x19]
    2684:	14000004 	b	2694 <kprintf+0x13dc>
    2688:	f9400662 	ldr	x2, [x19, #8]
    268c:	93407c20 	sxtw	x0, w1
    2690:	8b000040 	add	x0, x2, x0
    2694:	f9400000 	ldr	x0, [x0]
    2698:	14000067 	b	2834 <kprintf+0x157c>
/home/ubuntu/phytium-linux-buildroot/output/build/phytium-optee-v3.2/optee_os/lib/libutils/ext/snprintk.c:481 (discriminator 8)
    269c:	b94053e0 	ldr	w0, [sp, #80]
    26a0:	121b0000 	and	w0, w0, #0x20
    26a4:	7100001f 	cmp	w0, #0x0
    26a8:	540002e0 	b.eq	2704 <kprintf+0x144c>  // b.none
/home/ubuntu/phytium-linux-buildroot/output/build/phytium-optee-v3.2/optee_os/lib/libutils/ext/snprintk.c:481
    26ac:	b9401a61 	ldr	w1, [x19, #24]
    26b0:	f9400260 	ldr	x0, [x19]
    26b4:	7100003f 	cmp	w1, #0x0
    26b8:	540000ab 	b.lt	26cc <kprintf+0x1414>  // b.tstop
    26bc:	91003c01 	add	x1, x0, #0xf
    26c0:	927df021 	and	x1, x1, #0xfffffffffffffff8
    26c4:	f9000261 	str	x1, [x19]
    26c8:	1400000d 	b	26fc <kprintf+0x1444>
    26cc:	11002022 	add	w2, w1, #0x8
    26d0:	b9001a62 	str	w2, [x19, #24]
    26d4:	b9401a62 	ldr	w2, [x19, #24]
    26d8:	7100005f 	cmp	w2, #0x0
    26dc:	540000ad 	b.le	26f0 <kprintf+0x1438>
    26e0:	91003c01 	add	x1, x0, #0xf
    26e4:	927df021 	and	x1, x1, #0xfffffffffffffff8
    26e8:	f9000261 	str	x1, [x19]
    26ec:	14000004 	b	26fc <kprintf+0x1444>
    26f0:	f9400662 	ldr	x2, [x19, #8]
    26f4:	93407c20 	sxtw	x0, w1
    26f8:	8b000040 	add	x0, x2, x0
    26fc:	f9400000 	ldr	x0, [x0]
    2700:	1400004d 	b	2834 <kprintf+0x157c>
/home/ubuntu/phytium-linux-buildroot/output/build/phytium-optee-v3.2/optee_os/lib/libutils/ext/snprintk.c:481 (discriminator 11)
    2704:	b94053e0 	ldr	w0, [sp, #80]
    2708:	121c0000 	and	w0, w0, #0x10
    270c:	7100001f 	cmp	w0, #0x0
    2710:	540002e0 	b.eq	276c <kprintf+0x14b4>  // b.none
/home/ubuntu/phytium-linux-buildroot/output/build/phytium-optee-v3.2/optee_os/lib/libutils/ext/snprintk.c:481
    2714:	b9401a61 	ldr	w1, [x19, #24]
    2718:	f9400260 	ldr	x0, [x19]
    271c:	7100003f 	cmp	w1, #0x0
    2720:	540000ab 	b.lt	2734 <kprintf+0x147c>  // b.tstop
    2724:	91003c01 	add	x1, x0, #0xf
    2728:	927df021 	and	x1, x1, #0xfffffffffffffff8
    272c:	f9000261 	str	x1, [x19]
    2730:	1400000d 	b	2764 <kprintf+0x14ac>
    2734:	11002022 	add	w2, w1, #0x8
    2738:	b9001a62 	str	w2, [x19, #24]
    273c:	b9401a62 	ldr	w2, [x19, #24]
    2740:	7100005f 	cmp	w2, #0x0
    2744:	540000ad 	b.le	2758 <kprintf+0x14a0>
    2748:	91003c01 	add	x1, x0, #0xf
    274c:	927df021 	and	x1, x1, #0xfffffffffffffff8
    2750:	f9000261 	str	x1, [x19]
    2754:	14000004 	b	2764 <kprintf+0x14ac>
    2758:	f9400662 	ldr	x2, [x19, #8]
    275c:	93407c20 	sxtw	x0, w1
    2760:	8b000040 	add	x0, x2, x0
    2764:	f9400000 	ldr	x0, [x0]
    2768:	14000033 	b	2834 <kprintf+0x157c>
/home/ubuntu/phytium-linux-buildroot/output/build/phytium-optee-v3.2/optee_os/lib/libutils/ext/snprintk.c:481 (discriminator 14)
    276c:	b94053e0 	ldr	w0, [sp, #80]
    2770:	121a0000 	and	w0, w0, #0x40
    2774:	7100001f 	cmp	w0, #0x0
    2778:	54000320 	b.eq	27dc <kprintf+0x1524>  // b.none
/home/ubuntu/phytium-linux-buildroot/output/build/phytium-optee-v3.2/optee_os/lib/libutils/ext/snprintk.c:481
    277c:	b9401a61 	ldr	w1, [x19, #24]
    2780:	f9400260 	ldr	x0, [x19]
    2784:	7100003f 	cmp	w1, #0x0
    2788:	540000ab 	b.lt	279c <kprintf+0x14e4>  // b.tstop
    278c:	91002c01 	add	x1, x0, #0xb
    2790:	927df021 	and	x1, x1, #0xfffffffffffffff8
    2794:	f9000261 	str	x1, [x19]
    2798:	1400000d 	b	27cc <kprintf+0x1514>
    279c:	11002022 	add	w2, w1, #0x8
    27a0:	b9001a62 	str	w2, [x19, #24]
    27a4:	b9401a62 	ldr	w2, [x19, #24]
    27a8:	7100005f 	cmp	w2, #0x0
    27ac:	540000ad 	b.le	27c0 <kprintf+0x1508>
    27b0:	91002c01 	add	x1, x0, #0xb
    27b4:	927df021 	and	x1, x1, #0xfffffffffffffff8
    27b8:	f9000261 	str	x1, [x19]
    27bc:	14000004 	b	27cc <kprintf+0x1514>
    27c0:	f9400662 	ldr	x2, [x19, #8]
    27c4:	93407c20 	sxtw	x0, w1
    27c8:	8b000040 	add	x0, x2, x0
    27cc:	b9400000 	ldr	w0, [x0]
    27d0:	12003c00 	and	w0, w0, #0xffff
    27d4:	92403c00 	and	x0, x0, #0xffff
    27d8:	14000017 	b	2834 <kprintf+0x157c>
    27dc:	b9401a61 	ldr	w1, [x19, #24]
    27e0:	f9400260 	ldr	x0, [x19]
    27e4:	7100003f 	cmp	w1, #0x0
    27e8:	540000ab 	b.lt	27fc <kprintf+0x1544>  // b.tstop
    27ec:	91002c01 	add	x1, x0, #0xb
    27f0:	927df021 	and	x1, x1, #0xfffffffffffffff8
    27f4:	f9000261 	str	x1, [x19]
    27f8:	1400000d 	b	282c <kprintf+0x1574>
    27fc:	11002022 	add	w2, w1, #0x8
    2800:	b9001a62 	str	w2, [x19, #24]
    2804:	b9401a62 	ldr	w2, [x19, #24]
    2808:	7100005f 	cmp	w2, #0x0
    280c:	540000ad 	b.le	2820 <kprintf+0x1568>
    2810:	91002c01 	add	x1, x0, #0xb
    2814:	927df021 	and	x1, x1, #0xfffffffffffffff8
    2818:	f9000261 	str	x1, [x19]
    281c:	14000004 	b	282c <kprintf+0x1574>
    2820:	f9400662 	ldr	x2, [x19, #8]
    2824:	93407c20 	sxtw	x0, w1
    2828:	8b000040 	add	x0, x2, x0
    282c:	b9400000 	ldr	w0, [x0]
    2830:	2a0003e0 	mov	w0, w0
/home/ubuntu/phytium-linux-buildroot/output/build/phytium-optee-v3.2/optee_os/lib/libutils/ext/snprintk.c:481 (discriminator 24)
    2834:	f90043e0 	str	x0, [sp, #128]
/home/ubuntu/phytium-linux-buildroot/output/build/phytium-optee-v3.2/optee_os/lib/libutils/ext/snprintk.c:482 (discriminator 24)
    2838:	52800040 	mov	w0, #0x2                   	// #2
    283c:	b90063e0 	str	w0, [sp, #96]
/home/ubuntu/phytium-linux-buildroot/output/build/phytium-optee-v3.2/optee_os/lib/libutils/ext/snprintk.c:484 (discriminator 24)
    2840:	b94053e0 	ldr	w0, [sp, #80]
    2844:	12000000 	and	w0, w0, #0x1
    2848:	7100001f 	cmp	w0, #0x0
    284c:	54000100 	b.eq	286c <kprintf+0x15b4>  // b.none
/home/ubuntu/phytium-linux-buildroot/output/build/phytium-optee-v3.2/optee_os/lib/libutils/ext/snprintk.c:484 (discriminator 1)
    2850:	f94043e0 	ldr	x0, [sp, #128]
    2854:	f100001f 	cmp	x0, #0x0
    2858:	540000a0 	b.eq	286c <kprintf+0x15b4>  // b.none
/home/ubuntu/phytium-linux-buildroot/output/build/phytium-optee-v3.2/optee_os/lib/libutils/ext/snprintk.c:485
    285c:	b94053e0 	ldr	w0, [sp, #80]
    2860:	321f0000 	orr	w0, w0, #0x2
    2864:	b90053e0 	str	w0, [sp, #80]
    2868:	14000002 	b	2870 <kprintf+0x15b8>
/home/ubuntu/phytium-linux-buildroot/output/build/phytium-optee-v3.2/optee_os/lib/libutils/ext/snprintk.c:488
    286c:	d503201f 	nop
    2870:	39011fff 	strb	wzr, [sp, #71]
/home/ubuntu/phytium-linux-buildroot/output/build/phytium-optee-v3.2/optee_os/lib/libutils/ext/snprintk.c:494
    2874:	b9405fe0 	ldr	w0, [sp, #92]
    2878:	b90067e0 	str	w0, [sp, #100]
    287c:	b94067e0 	ldr	w0, [sp, #100]
    2880:	7100001f 	cmp	w0, #0x0
    2884:	5400008b 	b.lt	2894 <kprintf+0x15dc>  // b.tstop
/home/ubuntu/phytium-linux-buildroot/output/build/phytium-optee-v3.2/optee_os/lib/libutils/ext/snprintk.c:495
    2888:	b94053e0 	ldr	w0, [sp, #80]
    288c:	12157800 	and	w0, w0, #0xfffffbff
    2890:	b90053e0 	str	w0, [sp, #80]
/home/ubuntu/phytium-linux-buildroot/output/build/phytium-optee-v3.2/optee_os/lib/libutils/ext/snprintk.c:502
    2894:	910283e0 	add	x0, sp, #0xa0
    2898:	91009400 	add	x0, x0, #0x25
    289c:	f9003fe0 	str	x0, [sp, #120]
/home/ubuntu/phytium-linux-buildroot/output/build/phytium-optee-v3.2/optee_os/lib/libutils/ext/snprintk.c:503
    28a0:	f94043e0 	ldr	x0, [sp, #128]
    28a4:	f100001f 	cmp	x0, #0x0
    28a8:	54000081 	b.ne	28b8 <kprintf+0x1600>  // b.any
/home/ubuntu/phytium-linux-buildroot/output/build/phytium-optee-v3.2/optee_os/lib/libutils/ext/snprintk.c:503 (discriminator 1)
    28ac:	b9405fe0 	ldr	w0, [sp, #92]
    28b0:	7100001f 	cmp	w0, #0x0
    28b4:	54000dc0 	b.eq	2a6c <kprintf+0x17b4>  // b.none
    28b8:	b94063e0 	ldr	w0, [sp, #96]
    28bc:	7100081f 	cmp	w0, #0x2
    28c0:	54000a40 	b.eq	2a08 <kprintf+0x1750>  // b.none
    28c4:	b94063e0 	ldr	w0, [sp, #96]
    28c8:	7100081f 	cmp	w0, #0x2
    28cc:	54000c08 	b.hi	2a4c <kprintf+0x1794>  // b.pmore
    28d0:	b94063e0 	ldr	w0, [sp, #96]
    28d4:	7100001f 	cmp	w0, #0x0
    28d8:	540000c0 	b.eq	28f0 <kprintf+0x1638>  // b.none
    28dc:	b94063e0 	ldr	w0, [sp, #96]
    28e0:	7100041f 	cmp	w0, #0x1
    28e4:	54000760 	b.eq	29d0 <kprintf+0x1718>  // b.none
    28e8:	14000059 	b	2a4c <kprintf+0x1794>
/home/ubuntu/phytium-linux-buildroot/output/build/phytium-optee-v3.2/optee_os/lib/libutils/ext/snprintk.c:510
    28ec:	d503201f 	nop
/home/ubuntu/phytium-linux-buildroot/output/build/phytium-optee-v3.2/optee_os/lib/libutils/ext/snprintk.c:512 (discriminator 1)
    28f0:	f94043e0 	ldr	x0, [sp, #128]
    28f4:	12001c00 	and	w0, w0, #0xff
    28f8:	12000800 	and	w0, w0, #0x7
    28fc:	12001c00 	and	w0, w0, #0xff
    2900:	f9403fe1 	ldr	x1, [sp, #120]
    2904:	d1000421 	sub	x1, x1, #0x1
    2908:	f9003fe1 	str	x1, [sp, #120]
    290c:	1100c000 	add	w0, w0, #0x30
    2910:	12001c01 	and	w1, w0, #0xff
    2914:	f9403fe0 	ldr	x0, [sp, #120]
    2918:	39000001 	strb	w1, [x0]
/home/ubuntu/phytium-linux-buildroot/output/build/phytium-optee-v3.2/optee_os/lib/libutils/ext/snprintk.c:513 (discriminator 1)
    291c:	f94043e0 	ldr	x0, [sp, #128]
    2920:	d343fc00 	lsr	x0, x0, #3
    2924:	f90043e0 	str	x0, [sp, #128]
/home/ubuntu/phytium-linux-buildroot/output/build/phytium-optee-v3.2/optee_os/lib/libutils/ext/snprintk.c:514 (discriminator 1)
    2928:	f94043e0 	ldr	x0, [sp, #128]
    292c:	f100001f 	cmp	x0, #0x0
    2930:	54fffde1 	b.ne	28ec <kprintf+0x1634>  // b.any
/home/ubuntu/phytium-linux-buildroot/output/build/phytium-optee-v3.2/optee_os/lib/libutils/ext/snprintk.c:516
    2934:	b94053e0 	ldr	w0, [sp, #80]
    2938:	12000000 	and	w0, w0, #0x1
    293c:	7100001f 	cmp	w0, #0x0
    2940:	540009a0 	b.eq	2a74 <kprintf+0x17bc>  // b.none
/home/ubuntu/phytium-linux-buildroot/output/build/phytium-optee-v3.2/optee_os/lib/libutils/ext/snprintk.c:516 (discriminator 1)
    2944:	f9403fe0 	ldr	x0, [sp, #120]
    2948:	39400000 	ldrb	w0, [x0]
    294c:	7100c01f 	cmp	w0, #0x30
    2950:	54000920 	b.eq	2a74 <kprintf+0x17bc>  // b.none
/home/ubuntu/phytium-linux-buildroot/output/build/phytium-optee-v3.2/optee_os/lib/libutils/ext/snprintk.c:517
    2954:	f9403fe0 	ldr	x0, [sp, #120]
    2958:	d1000400 	sub	x0, x0, #0x1
    295c:	f9003fe0 	str	x0, [sp, #120]
    2960:	f9403fe0 	ldr	x0, [sp, #120]
    2964:	52800601 	mov	w1, #0x30                  	// #48
    2968:	39000001 	strb	w1, [x0]
/home/ubuntu/phytium-linux-buildroot/output/build/phytium-optee-v3.2/optee_os/lib/libutils/ext/snprintk.c:518
    296c:	14000042 	b	2a74 <kprintf+0x17bc>
/home/ubuntu/phytium-linux-buildroot/output/build/phytium-optee-v3.2/optee_os/lib/libutils/ext/snprintk.c:523
    2970:	f94043e2 	ldr	x2, [sp, #128]
    2974:	b202e7e0 	mov	x0, #0xcccccccccccccccc    	// #-3689348814741910324
    2978:	f29999a0 	movk	x0, #0xcccd
    297c:	9bc07c40 	umulh	x0, x2, x0
    2980:	d343fc01 	lsr	x1, x0, #3
    2984:	aa0103e0 	mov	x0, x1
    2988:	d37ef400 	lsl	x0, x0, #2
    298c:	8b010000 	add	x0, x0, x1
    2990:	8b000000 	add	x0, x0, x0
    2994:	cb000041 	sub	x1, x2, x0
    2998:	12001c20 	and	w0, w1, #0xff
    299c:	f9403fe1 	ldr	x1, [sp, #120]
    29a0:	d1000421 	sub	x1, x1, #0x1
    29a4:	f9003fe1 	str	x1, [sp, #120]
    29a8:	1100c000 	add	w0, w0, #0x30
    29ac:	12001c01 	and	w1, w0, #0xff
    29b0:	f9403fe0 	ldr	x0, [sp, #120]
    29b4:	39000001 	strb	w1, [x0]
/home/ubuntu/phytium-linux-buildroot/output/build/phytium-optee-v3.2/optee_os/lib/libutils/ext/snprintk.c:524
    29b8:	f94043e1 	ldr	x1, [sp, #128]
    29bc:	b202e7e0 	mov	x0, #0xcccccccccccccccc    	// #-3689348814741910324
    29c0:	f29999a0 	movk	x0, #0xcccd
    29c4:	9bc07c20 	umulh	x0, x1, x0
    29c8:	d343fc00 	lsr	x0, x0, #3
    29cc:	f90043e0 	str	x0, [sp, #128]
/home/ubuntu/phytium-linux-buildroot/output/build/phytium-optee-v3.2/optee_os/lib/libutils/ext/snprintk.c:522
    29d0:	f94043e0 	ldr	x0, [sp, #128]
    29d4:	f100241f 	cmp	x0, #0x9
    29d8:	54fffcc8 	b.hi	2970 <kprintf+0x16b8>  // b.pmore
/home/ubuntu/phytium-linux-buildroot/output/build/phytium-optee-v3.2/optee_os/lib/libutils/ext/snprintk.c:526
    29dc:	f94043e0 	ldr	x0, [sp, #128]
    29e0:	12001c00 	and	w0, w0, #0xff
    29e4:	f9403fe1 	ldr	x1, [sp, #120]
    29e8:	d1000421 	sub	x1, x1, #0x1
    29ec:	f9003fe1 	str	x1, [sp, #120]
    29f0:	1100c000 	add	w0, w0, #0x30
    29f4:	12001c01 	and	w1, w0, #0xff
    29f8:	f9403fe0 	ldr	x0, [sp, #120]
    29fc:	39000001 	strb	w1, [x0]
/home/ubuntu/phytium-linux-buildroot/output/build/phytium-optee-v3.2/optee_os/lib/libutils/ext/snprintk.c:527
    2a00:	1400001e 	b	2a78 <kprintf+0x17c0>
/home/ubuntu/phytium-linux-buildroot/output/build/phytium-optee-v3.2/optee_os/lib/libutils/ext/snprintk.c:529
    2a04:	d503201f 	nop
/home/ubuntu/phytium-linux-buildroot/output/build/phytium-optee-v3.2/optee_os/lib/libutils/ext/snprintk.c:531 (discriminator 1)
    2a08:	f94043e0 	ldr	x0, [sp, #128]
    2a0c:	92400c00 	and	x0, x0, #0xf
    2a10:	f94047e1 	ldr	x1, [sp, #136]
    2a14:	8b000020 	add	x0, x1, x0
    2a18:	f9403fe1 	ldr	x1, [sp, #120]
    2a1c:	d1000421 	sub	x1, x1, #0x1
    2a20:	f9003fe1 	str	x1, [sp, #120]
    2a24:	39400001 	ldrb	w1, [x0]
    2a28:	f9403fe0 	ldr	x0, [sp, #120]
    2a2c:	39000001 	strb	w1, [x0]
/home/ubuntu/phytium-linux-buildroot/output/build/phytium-optee-v3.2/optee_os/lib/libutils/ext/snprintk.c:532 (discriminator 1)
    2a30:	f94043e0 	ldr	x0, [sp, #128]
    2a34:	d344fc00 	lsr	x0, x0, #4
    2a38:	f90043e0 	str	x0, [sp, #128]
/home/ubuntu/phytium-linux-buildroot/output/build/phytium-optee-v3.2/optee_os/lib/libutils/ext/snprintk.c:533 (discriminator 1)
    2a3c:	f94043e0 	ldr	x0, [sp, #128]
    2a40:	f100001f 	cmp	x0, #0x0
    2a44:	54fffe01 	b.ne	2a04 <kprintf+0x174c>  // b.any
/home/ubuntu/phytium-linux-buildroot/output/build/phytium-optee-v3.2/optee_os/lib/libutils/ext/snprintk.c:534
    2a48:	1400000c 	b	2a78 <kprintf+0x17c0>
/home/ubuntu/phytium-linux-buildroot/output/build/phytium-optee-v3.2/optee_os/lib/libutils/ext/snprintk.c:538
    2a4c:	f00000c0 	adrp	x0, 1d000 <__text_end+0x2c18>
    2a50:	912d0000 	add	x0, x0, #0xb40
    2a54:	f9003fe0 	str	x0, [sp, #120]
/home/ubuntu/phytium-linux-buildroot/output/build/phytium-optee-v3.2/optee_os/lib/libutils/ext/snprintk.c:539
    2a58:	f9403fe0 	ldr	x0, [sp, #120]
    2a5c:	94000198 	bl	30bc <strlen>
    2a60:	b9006fe0 	str	w0, [sp, #108]
/home/ubuntu/phytium-linux-buildroot/output/build/phytium-optee-v3.2/optee_os/lib/libutils/ext/snprintk.c:540
    2a64:	d503201f 	nop
/home/ubuntu/phytium-linux-buildroot/output/build/phytium-optee-v3.2/optee_os/lib/libutils/ext/snprintk.c:545
    2a68:	14000017 	b	2ac4 <kprintf+0x180c>
/home/ubuntu/phytium-linux-buildroot/output/build/phytium-optee-v3.2/optee_os/lib/libutils/ext/snprintk.c:542
    2a6c:	d503201f 	nop
    2a70:	14000002 	b	2a78 <kprintf+0x17c0>
/home/ubuntu/phytium-linux-buildroot/output/build/phytium-optee-v3.2/optee_os/lib/libutils/ext/snprintk.c:518
    2a74:	d503201f 	nop
/home/ubuntu/phytium-linux-buildroot/output/build/phytium-optee-v3.2/optee_os/lib/libutils/ext/snprintk.c:543
    2a78:	910283e0 	add	x0, sp, #0xa0
    2a7c:	91009400 	add	x0, x0, #0x25
    2a80:	f9403fe1 	ldr	x1, [sp, #120]
    2a84:	cb010000 	sub	x0, x0, x1
    2a88:	b9006fe0 	str	w0, [sp, #108]
/home/ubuntu/phytium-linux-buildroot/output/build/phytium-optee-v3.2/optee_os/lib/libutils/ext/snprintk.c:545
    2a8c:	1400000e 	b	2ac4 <kprintf+0x180c>
/home/ubuntu/phytium-linux-buildroot/output/build/phytium-optee-v3.2/optee_os/lib/libutils/ext/snprintk.c:547
    2a90:	b9404be0 	ldr	w0, [sp, #72]
    2a94:	7100001f 	cmp	w0, #0x0
    2a98:	54002060 	b.eq	2ea4 <kprintf+0x1bec>  // b.none
/home/ubuntu/phytium-linux-buildroot/output/build/phytium-optee-v3.2/optee_os/lib/libutils/ext/snprintk.c:550
    2a9c:	910283e0 	add	x0, sp, #0xa0
    2aa0:	f9003fe0 	str	x0, [sp, #120]
/home/ubuntu/phytium-linux-buildroot/output/build/phytium-optee-v3.2/optee_os/lib/libutils/ext/snprintk.c:551
    2aa4:	b9404be0 	ldr	w0, [sp, #72]
    2aa8:	12001c01 	and	w1, w0, #0xff
    2aac:	f9403fe0 	ldr	x0, [sp, #120]
    2ab0:	39000001 	strb	w1, [x0]
/home/ubuntu/phytium-linux-buildroot/output/build/phytium-optee-v3.2/optee_os/lib/libutils/ext/snprintk.c:552
    2ab4:	52800020 	mov	w0, #0x1                   	// #1
    2ab8:	b9006fe0 	str	w0, [sp, #108]
/home/ubuntu/phytium-linux-buildroot/output/build/phytium-optee-v3.2/optee_os/lib/libutils/ext/snprintk.c:553
    2abc:	39011fff 	strb	wzr, [sp, #71]
/home/ubuntu/phytium-linux-buildroot/output/build/phytium-optee-v3.2/optee_os/lib/libutils/ext/snprintk.c:554
    2ac0:	d503201f 	nop
/home/ubuntu/phytium-linux-buildroot/output/build/phytium-optee-v3.2/optee_os/lib/libutils/ext/snprintk.c:571
    2ac4:	b94067e0 	ldr	w0, [sp, #100]
    2ac8:	b9406fe2 	ldr	w2, [sp, #108]
    2acc:	b9406fe1 	ldr	w1, [sp, #108]
    2ad0:	6b00005f 	cmp	w2, w0
    2ad4:	1a80a020 	csel	w0, w1, w0, ge  // ge = tcont
    2ad8:	b9006be0 	str	w0, [sp, #104]
/home/ubuntu/phytium-linux-buildroot/output/build/phytium-optee-v3.2/optee_os/lib/libutils/ext/snprintk.c:572
    2adc:	39411fe0 	ldrb	w0, [sp, #71]
    2ae0:	7100001f 	cmp	w0, #0x0
    2ae4:	540000a0 	b.eq	2af8 <kprintf+0x1840>  // b.none
/home/ubuntu/phytium-linux-buildroot/output/build/phytium-optee-v3.2/optee_os/lib/libutils/ext/snprintk.c:573
    2ae8:	b9406be0 	ldr	w0, [sp, #104]
    2aec:	11000400 	add	w0, w0, #0x1
    2af0:	b9006be0 	str	w0, [sp, #104]
    2af4:	14000008 	b	2b14 <kprintf+0x185c>
/home/ubuntu/phytium-linux-buildroot/output/build/phytium-optee-v3.2/optee_os/lib/libutils/ext/snprintk.c:574
    2af8:	b94053e0 	ldr	w0, [sp, #80]
    2afc:	121f0000 	and	w0, w0, #0x2
    2b00:	7100001f 	cmp	w0, #0x0
    2b04:	54000080 	b.eq	2b14 <kprintf+0x185c>  // b.none
/home/ubuntu/phytium-linux-buildroot/output/build/phytium-optee-v3.2/optee_os/lib/libutils/ext/snprintk.c:575
    2b08:	b9406be0 	ldr	w0, [sp, #104]
    2b0c:	11000800 	add	w0, w0, #0x2
    2b10:	b9006be0 	str	w0, [sp, #104]
/home/ubuntu/phytium-linux-buildroot/output/build/phytium-optee-v3.2/optee_os/lib/libutils/ext/snprintk.c:578
    2b14:	b9405be0 	ldr	w0, [sp, #88]
    2b18:	b9406be2 	ldr	w2, [sp, #104]
    2b1c:	b9406be1 	ldr	w1, [sp, #104]
    2b20:	6b00005f 	cmp	w2, w0
    2b24:	1a80a020 	csel	w0, w1, w0, ge  // ge = tcont
    2b28:	b94057e1 	ldr	w1, [sp, #84]
    2b2c:	0b000020 	add	w0, w1, w0
    2b30:	b90057e0 	str	w0, [sp, #84]
/home/ubuntu/phytium-linux-buildroot/output/build/phytium-optee-v3.2/optee_os/lib/libutils/ext/snprintk.c:581
    2b34:	b94053e1 	ldr	w1, [sp, #80]
    2b38:	52808080 	mov	w0, #0x404                 	// #1028
    2b3c:	0a000020 	and	w0, w1, w0
    2b40:	7100001f 	cmp	w0, #0x0
    2b44:	540003a1 	b.ne	2bb8 <kprintf+0x1900>  // b.any
/home/ubuntu/phytium-linux-buildroot/output/build/phytium-optee-v3.2/optee_os/lib/libutils/ext/snprintk.c:582
    2b48:	b9405be1 	ldr	w1, [sp, #88]
    2b4c:	b9406be0 	ldr	w0, [sp, #104]
    2b50:	4b000020 	sub	w0, w1, w0
    2b54:	b9004fe0 	str	w0, [sp, #76]
/home/ubuntu/phytium-linux-buildroot/output/build/phytium-optee-v3.2/optee_os/lib/libutils/ext/snprintk.c:583
    2b58:	14000013 	b	2ba4 <kprintf+0x18ec>
/home/ubuntu/phytium-linux-buildroot/output/build/phytium-optee-v3.2/optee_os/lib/libutils/ext/snprintk.c:584
    2b5c:	b94037e0 	ldr	w0, [sp, #52]
    2b60:	7100201f 	cmp	w0, #0x8
    2b64:	54000201 	b.ne	2ba4 <kprintf+0x18ec>  // b.any
/home/ubuntu/phytium-linux-buildroot/output/build/phytium-optee-v3.2/optee_os/lib/libutils/ext/snprintk.c:584 (discriminator 1)
    2b68:	f94013e0 	ldr	x0, [sp, #32]
    2b6c:	f100001f 	cmp	x0, #0x0
    2b70:	540001a0 	b.eq	2ba4 <kprintf+0x18ec>  // b.none
/home/ubuntu/phytium-linux-buildroot/output/build/phytium-optee-v3.2/optee_os/lib/libutils/ext/snprintk.c:584 (discriminator 2)
    2b74:	f94017e0 	ldr	x0, [sp, #40]
    2b78:	f100001f 	cmp	x0, #0x0
    2b7c:	540000a0 	b.eq	2b90 <kprintf+0x18d8>  // b.none
/home/ubuntu/phytium-linux-buildroot/output/build/phytium-optee-v3.2/optee_os/lib/libutils/ext/snprintk.c:584 (discriminator 4)
    2b80:	f94013e1 	ldr	x1, [sp, #32]
    2b84:	f9404be0 	ldr	x0, [sp, #144]
    2b88:	eb00003f 	cmp	x1, x0
    2b8c:	540000c2 	b.cs	2ba4 <kprintf+0x18ec>  // b.hs, b.nlast
/home/ubuntu/phytium-linux-buildroot/output/build/phytium-optee-v3.2/optee_os/lib/libutils/ext/snprintk.c:584 (discriminator 5)
    2b90:	f94013e0 	ldr	x0, [sp, #32]
    2b94:	91000401 	add	x1, x0, #0x1
    2b98:	f90013e1 	str	x1, [sp, #32]
    2b9c:	52800401 	mov	w1, #0x20                  	// #32
    2ba0:	39000001 	strb	w1, [x0]
/home/ubuntu/phytium-linux-buildroot/output/build/phytium-optee-v3.2/optee_os/lib/libutils/ext/snprintk.c:583
    2ba4:	b9404fe0 	ldr	w0, [sp, #76]
    2ba8:	51000401 	sub	w1, w0, #0x1
    2bac:	b9004fe1 	str	w1, [sp, #76]
    2bb0:	7100001f 	cmp	w0, #0x0
    2bb4:	54fffd4c 	b.gt	2b5c <kprintf+0x18a4>
/home/ubuntu/phytium-linux-buildroot/output/build/phytium-optee-v3.2/optee_os/lib/libutils/ext/snprintk.c:588
    2bb8:	39411fe0 	ldrb	w0, [sp, #71]
    2bbc:	7100001f 	cmp	w0, #0x0
    2bc0:	54000280 	b.eq	2c10 <kprintf+0x1958>  // b.none
/home/ubuntu/phytium-linux-buildroot/output/build/phytium-optee-v3.2/optee_os/lib/libutils/ext/snprintk.c:589
    2bc4:	b94037e0 	ldr	w0, [sp, #52]
    2bc8:	7100201f 	cmp	w0, #0x8
    2bcc:	54000741 	b.ne	2cb4 <kprintf+0x19fc>  // b.any
/home/ubuntu/phytium-linux-buildroot/output/build/phytium-optee-v3.2/optee_os/lib/libutils/ext/snprintk.c:589 (discriminator 1)
    2bd0:	f94013e0 	ldr	x0, [sp, #32]
    2bd4:	f100001f 	cmp	x0, #0x0
    2bd8:	540006e0 	b.eq	2cb4 <kprintf+0x19fc>  // b.none
/home/ubuntu/phytium-linux-buildroot/output/build/phytium-optee-v3.2/optee_os/lib/libutils/ext/snprintk.c:589 (discriminator 2)
    2bdc:	f94017e0 	ldr	x0, [sp, #40]
    2be0:	f100001f 	cmp	x0, #0x0
    2be4:	540000a0 	b.eq	2bf8 <kprintf+0x1940>  // b.none
/home/ubuntu/phytium-linux-buildroot/output/build/phytium-optee-v3.2/optee_os/lib/libutils/ext/snprintk.c:589 (discriminator 4)
    2be8:	f94013e1 	ldr	x1, [sp, #32]
    2bec:	f9404be0 	ldr	x0, [sp, #144]
    2bf0:	eb00003f 	cmp	x1, x0
    2bf4:	54000602 	b.cs	2cb4 <kprintf+0x19fc>  // b.hs, b.nlast
/home/ubuntu/phytium-linux-buildroot/output/build/phytium-optee-v3.2/optee_os/lib/libutils/ext/snprintk.c:589 (discriminator 5)
    2bf8:	f94013e0 	ldr	x0, [sp, #32]
    2bfc:	91000401 	add	x1, x0, #0x1
    2c00:	f90013e1 	str	x1, [sp, #32]
    2c04:	39411fe1 	ldrb	w1, [sp, #71]
    2c08:	39000001 	strb	w1, [x0]
    2c0c:	1400002a 	b	2cb4 <kprintf+0x19fc>
/home/ubuntu/phytium-linux-buildroot/output/build/phytium-optee-v3.2/optee_os/lib/libutils/ext/snprintk.c:590
    2c10:	b94053e0 	ldr	w0, [sp, #80]
    2c14:	121f0000 	and	w0, w0, #0x2
    2c18:	7100001f 	cmp	w0, #0x0
    2c1c:	540004c0 	b.eq	2cb4 <kprintf+0x19fc>  // b.none
/home/ubuntu/phytium-linux-buildroot/output/build/phytium-optee-v3.2/optee_os/lib/libutils/ext/snprintk.c:591
    2c20:	b94037e0 	ldr	w0, [sp, #52]
    2c24:	7100201f 	cmp	w0, #0x8
    2c28:	54000201 	b.ne	2c68 <kprintf+0x19b0>  // b.any
/home/ubuntu/phytium-linux-buildroot/output/build/phytium-optee-v3.2/optee_os/lib/libutils/ext/snprintk.c:591 (discriminator 1)
    2c2c:	f94013e0 	ldr	x0, [sp, #32]
    2c30:	f100001f 	cmp	x0, #0x0
    2c34:	540001a0 	b.eq	2c68 <kprintf+0x19b0>  // b.none
/home/ubuntu/phytium-linux-buildroot/output/build/phytium-optee-v3.2/optee_os/lib/libutils/ext/snprintk.c:591 (discriminator 2)
    2c38:	f94017e0 	ldr	x0, [sp, #40]
    2c3c:	f100001f 	cmp	x0, #0x0
    2c40:	540000a0 	b.eq	2c54 <kprintf+0x199c>  // b.none
/home/ubuntu/phytium-linux-buildroot/output/build/phytium-optee-v3.2/optee_os/lib/libutils/ext/snprintk.c:591 (discriminator 4)
    2c44:	f94013e1 	ldr	x1, [sp, #32]
    2c48:	f9404be0 	ldr	x0, [sp, #144]
    2c4c:	eb00003f 	cmp	x1, x0
    2c50:	540000c2 	b.cs	2c68 <kprintf+0x19b0>  // b.hs, b.nlast
/home/ubuntu/phytium-linux-buildroot/output/build/phytium-optee-v3.2/optee_os/lib/libutils/ext/snprintk.c:591 (discriminator 5)
    2c54:	f94013e0 	ldr	x0, [sp, #32]
    2c58:	91000401 	add	x1, x0, #0x1
    2c5c:	f90013e1 	str	x1, [sp, #32]
    2c60:	52800601 	mov	w1, #0x30                  	// #48
    2c64:	39000001 	strb	w1, [x0]
/home/ubuntu/phytium-linux-buildroot/output/build/phytium-optee-v3.2/optee_os/lib/libutils/ext/snprintk.c:592
    2c68:	b94037e0 	ldr	w0, [sp, #52]
    2c6c:	7100201f 	cmp	w0, #0x8
    2c70:	54000221 	b.ne	2cb4 <kprintf+0x19fc>  // b.any
/home/ubuntu/phytium-linux-buildroot/output/build/phytium-optee-v3.2/optee_os/lib/libutils/ext/snprintk.c:592 (discriminator 1)
    2c74:	f94013e0 	ldr	x0, [sp, #32]
    2c78:	f100001f 	cmp	x0, #0x0
    2c7c:	540001c0 	b.eq	2cb4 <kprintf+0x19fc>  // b.none
/home/ubuntu/phytium-linux-buildroot/output/build/phytium-optee-v3.2/optee_os/lib/libutils/ext/snprintk.c:592 (discriminator 2)
    2c80:	f94017e0 	ldr	x0, [sp, #40]
    2c84:	f100001f 	cmp	x0, #0x0
    2c88:	540000a0 	b.eq	2c9c <kprintf+0x19e4>  // b.none
/home/ubuntu/phytium-linux-buildroot/output/build/phytium-optee-v3.2/optee_os/lib/libutils/ext/snprintk.c:592 (discriminator 4)
    2c8c:	f94013e1 	ldr	x1, [sp, #32]
    2c90:	f9404be0 	ldr	x0, [sp, #144]
    2c94:	eb00003f 	cmp	x1, x0
    2c98:	540000e2 	b.cs	2cb4 <kprintf+0x19fc>  // b.hs, b.nlast
/home/ubuntu/phytium-linux-buildroot/output/build/phytium-optee-v3.2/optee_os/lib/libutils/ext/snprintk.c:592 (discriminator 5)
    2c9c:	f94013e0 	ldr	x0, [sp, #32]
    2ca0:	91000401 	add	x1, x0, #0x1
    2ca4:	f90013e1 	str	x1, [sp, #32]
    2ca8:	b9404be1 	ldr	w1, [sp, #72]
    2cac:	12001c21 	and	w1, w1, #0xff
    2cb0:	39000001 	strb	w1, [x0]
/home/ubuntu/phytium-linux-buildroot/output/build/phytium-optee-v3.2/optee_os/lib/libutils/ext/snprintk.c:596
    2cb4:	b94053e1 	ldr	w1, [sp, #80]
    2cb8:	52808080 	mov	w0, #0x404                 	// #1028
    2cbc:	0a000020 	and	w0, w1, w0
    2cc0:	7110001f 	cmp	w0, #0x400
    2cc4:	540003a1 	b.ne	2d38 <kprintf+0x1a80>  // b.any
/home/ubuntu/phytium-linux-buildroot/output/build/phytium-optee-v3.2/optee_os/lib/libutils/ext/snprintk.c:597
    2cc8:	b9405be1 	ldr	w1, [sp, #88]
    2ccc:	b9406be0 	ldr	w0, [sp, #104]
    2cd0:	4b000020 	sub	w0, w1, w0
    2cd4:	b9004fe0 	str	w0, [sp, #76]
/home/ubuntu/phytium-linux-buildroot/output/build/phytium-optee-v3.2/optee_os/lib/libutils/ext/snprintk.c:598
    2cd8:	14000013 	b	2d24 <kprintf+0x1a6c>
/home/ubuntu/phytium-linux-buildroot/output/build/phytium-optee-v3.2/optee_os/lib/libutils/ext/snprintk.c:599
    2cdc:	b94037e0 	ldr	w0, [sp, #52]
    2ce0:	7100201f 	cmp	w0, #0x8
    2ce4:	54000201 	b.ne	2d24 <kprintf+0x1a6c>  // b.any
/home/ubuntu/phytium-linux-buildroot/output/build/phytium-optee-v3.2/optee_os/lib/libutils/ext/snprintk.c:599 (discriminator 1)
    2ce8:	f94013e0 	ldr	x0, [sp, #32]
    2cec:	f100001f 	cmp	x0, #0x0
    2cf0:	540001a0 	b.eq	2d24 <kprintf+0x1a6c>  // b.none
/home/ubuntu/phytium-linux-buildroot/output/build/phytium-optee-v3.2/optee_os/lib/libutils/ext/snprintk.c:599 (discriminator 2)
    2cf4:	f94017e0 	ldr	x0, [sp, #40]
    2cf8:	f100001f 	cmp	x0, #0x0
    2cfc:	540000a0 	b.eq	2d10 <kprintf+0x1a58>  // b.none
/home/ubuntu/phytium-linux-buildroot/output/build/phytium-optee-v3.2/optee_os/lib/libutils/ext/snprintk.c:599 (discriminator 4)
    2d00:	f94013e1 	ldr	x1, [sp, #32]
    2d04:	f9404be0 	ldr	x0, [sp, #144]
    2d08:	eb00003f 	cmp	x1, x0
    2d0c:	540000c2 	b.cs	2d24 <kprintf+0x1a6c>  // b.hs, b.nlast
/home/ubuntu/phytium-linux-buildroot/output/build/phytium-optee-v3.2/optee_os/lib/libutils/ext/snprintk.c:599 (discriminator 5)
    2d10:	f94013e0 	ldr	x0, [sp, #32]
    2d14:	91000401 	add	x1, x0, #0x1
    2d18:	f90013e1 	str	x1, [sp, #32]
    2d1c:	52800601 	mov	w1, #0x30                  	// #48
    2d20:	39000001 	strb	w1, [x0]
/home/ubuntu/phytium-linux-buildroot/output/build/phytium-optee-v3.2/optee_os/lib/libutils/ext/snprintk.c:598
    2d24:	b9404fe0 	ldr	w0, [sp, #76]
    2d28:	51000401 	sub	w1, w0, #0x1
    2d2c:	b9004fe1 	str	w1, [sp, #76]
    2d30:	7100001f 	cmp	w0, #0x0
    2d34:	54fffd4c 	b.gt	2cdc <kprintf+0x1a24>
/home/ubuntu/phytium-linux-buildroot/output/build/phytium-optee-v3.2/optee_os/lib/libutils/ext/snprintk.c:603
    2d38:	b94067e1 	ldr	w1, [sp, #100]
    2d3c:	b9406fe0 	ldr	w0, [sp, #108]
    2d40:	4b000020 	sub	w0, w1, w0
    2d44:	b9004fe0 	str	w0, [sp, #76]
/home/ubuntu/phytium-linux-buildroot/output/build/phytium-optee-v3.2/optee_os/lib/libutils/ext/snprintk.c:604
    2d48:	14000013 	b	2d94 <kprintf+0x1adc>
/home/ubuntu/phytium-linux-buildroot/output/build/phytium-optee-v3.2/optee_os/lib/libutils/ext/snprintk.c:605
    2d4c:	b94037e0 	ldr	w0, [sp, #52]
    2d50:	7100201f 	cmp	w0, #0x8
    2d54:	54000201 	b.ne	2d94 <kprintf+0x1adc>  // b.any
/home/ubuntu/phytium-linux-buildroot/output/build/phytium-optee-v3.2/optee_os/lib/libutils/ext/snprintk.c:605 (discriminator 1)
    2d58:	f94013e0 	ldr	x0, [sp, #32]
    2d5c:	f100001f 	cmp	x0, #0x0
    2d60:	540001a0 	b.eq	2d94 <kprintf+0x1adc>  // b.none
/home/ubuntu/phytium-linux-buildroot/output/build/phytium-optee-v3.2/optee_os/lib/libutils/ext/snprintk.c:605 (discriminator 2)
    2d64:	f94017e0 	ldr	x0, [sp, #40]
    2d68:	f100001f 	cmp	x0, #0x0
    2d6c:	540000a0 	b.eq	2d80 <kprintf+0x1ac8>  // b.none
/home/ubuntu/phytium-linux-buildroot/output/build/phytium-optee-v3.2/optee_os/lib/libutils/ext/snprintk.c:605 (discriminator 4)
    2d70:	f94013e1 	ldr	x1, [sp, #32]
    2d74:	f9404be0 	ldr	x0, [sp, #144]
    2d78:	eb00003f 	cmp	x1, x0
    2d7c:	540000c2 	b.cs	2d94 <kprintf+0x1adc>  // b.hs, b.nlast
/home/ubuntu/phytium-linux-buildroot/output/build/phytium-optee-v3.2/optee_os/lib/libutils/ext/snprintk.c:605 (discriminator 5)
    2d80:	f94013e0 	ldr	x0, [sp, #32]
    2d84:	91000401 	add	x1, x0, #0x1
    2d88:	f90013e1 	str	x1, [sp, #32]
    2d8c:	52800601 	mov	w1, #0x30                  	// #48
    2d90:	39000001 	strb	w1, [x0]
/home/ubuntu/phytium-linux-buildroot/output/build/phytium-optee-v3.2/optee_os/lib/libutils/ext/snprintk.c:604
    2d94:	b9404fe0 	ldr	w0, [sp, #76]
    2d98:	51000401 	sub	w1, w0, #0x1
    2d9c:	b9004fe1 	str	w1, [sp, #76]
    2da0:	7100001f 	cmp	w0, #0x0
    2da4:	54fffd4c 	b.gt	2d4c <kprintf+0x1a94>
/home/ubuntu/phytium-linux-buildroot/output/build/phytium-optee-v3.2/optee_os/lib/libutils/ext/snprintk.c:608
    2da8:	14000017 	b	2e04 <kprintf+0x1b4c>
/home/ubuntu/phytium-linux-buildroot/output/build/phytium-optee-v3.2/optee_os/lib/libutils/ext/snprintk.c:609
    2dac:	b94037e0 	ldr	w0, [sp, #52]
    2db0:	7100201f 	cmp	w0, #0x8
    2db4:	54000221 	b.ne	2df8 <kprintf+0x1b40>  // b.any
/home/ubuntu/phytium-linux-buildroot/output/build/phytium-optee-v3.2/optee_os/lib/libutils/ext/snprintk.c:609 (discriminator 1)
    2db8:	f94013e0 	ldr	x0, [sp, #32]
    2dbc:	f100001f 	cmp	x0, #0x0
    2dc0:	540001c0 	b.eq	2df8 <kprintf+0x1b40>  // b.none
/home/ubuntu/phytium-linux-buildroot/output/build/phytium-optee-v3.2/optee_os/lib/libutils/ext/snprintk.c:609 (discriminator 2)
    2dc4:	f94017e0 	ldr	x0, [sp, #40]
    2dc8:	f100001f 	cmp	x0, #0x0
    2dcc:	540000a0 	b.eq	2de0 <kprintf+0x1b28>  // b.none
/home/ubuntu/phytium-linux-buildroot/output/build/phytium-optee-v3.2/optee_os/lib/libutils/ext/snprintk.c:609 (discriminator 4)
    2dd0:	f94013e1 	ldr	x1, [sp, #32]
    2dd4:	f9404be0 	ldr	x0, [sp, #144]
    2dd8:	eb00003f 	cmp	x1, x0
    2ddc:	540000e2 	b.cs	2df8 <kprintf+0x1b40>  // b.hs, b.nlast
/home/ubuntu/phytium-linux-buildroot/output/build/phytium-optee-v3.2/optee_os/lib/libutils/ext/snprintk.c:609 (discriminator 5)
    2de0:	f94013e0 	ldr	x0, [sp, #32]
    2de4:	91000401 	add	x1, x0, #0x1
    2de8:	f90013e1 	str	x1, [sp, #32]
    2dec:	f9403fe1 	ldr	x1, [sp, #120]
    2df0:	39400021 	ldrb	w1, [x1]
    2df4:	39000001 	strb	w1, [x0]
/home/ubuntu/phytium-linux-buildroot/output/build/phytium-optee-v3.2/optee_os/lib/libutils/ext/snprintk.c:608
    2df8:	f9403fe0 	ldr	x0, [sp, #120]
    2dfc:	91000400 	add	x0, x0, #0x1
    2e00:	f9003fe0 	str	x0, [sp, #120]
/home/ubuntu/phytium-linux-buildroot/output/build/phytium-optee-v3.2/optee_os/lib/libutils/ext/snprintk.c:608 (discriminator 1)
    2e04:	b9406fe0 	ldr	w0, [sp, #108]
    2e08:	51000401 	sub	w1, w0, #0x1
    2e0c:	b9006fe1 	str	w1, [sp, #108]
    2e10:	7100001f 	cmp	w0, #0x0
    2e14:	54fffcc1 	b.ne	2dac <kprintf+0x1af4>  // b.any
/home/ubuntu/phytium-linux-buildroot/output/build/phytium-optee-v3.2/optee_os/lib/libutils/ext/snprintk.c:611
    2e18:	b94053e0 	ldr	w0, [sp, #80]
    2e1c:	121e0000 	and	w0, w0, #0x4
    2e20:	7100001f 	cmp	w0, #0x0
    2e24:	54ff2bc0 	b.eq	139c <kprintf+0xe4>  // b.none
/home/ubuntu/phytium-linux-buildroot/output/build/phytium-optee-v3.2/optee_os/lib/libutils/ext/snprintk.c:612
    2e28:	b9405be1 	ldr	w1, [sp, #88]
    2e2c:	b9406be0 	ldr	w0, [sp, #104]
    2e30:	4b000020 	sub	w0, w1, w0
    2e34:	b9004fe0 	str	w0, [sp, #76]
/home/ubuntu/phytium-linux-buildroot/output/build/phytium-optee-v3.2/optee_os/lib/libutils/ext/snprintk.c:613
    2e38:	14000013 	b	2e84 <kprintf+0x1bcc>
/home/ubuntu/phytium-linux-buildroot/output/build/phytium-optee-v3.2/optee_os/lib/libutils/ext/snprintk.c:614
    2e3c:	b94037e0 	ldr	w0, [sp, #52]
    2e40:	7100201f 	cmp	w0, #0x8
    2e44:	54000201 	b.ne	2e84 <kprintf+0x1bcc>  // b.any
/home/ubuntu/phytium-linux-buildroot/output/build/phytium-optee-v3.2/optee_os/lib/libutils/ext/snprintk.c:614 (discriminator 1)
    2e48:	f94013e0 	ldr	x0, [sp, #32]
    2e4c:	f100001f 	cmp	x0, #0x0
    2e50:	540001a0 	b.eq	2e84 <kprintf+0x1bcc>  // b.none
/home/ubuntu/phytium-linux-buildroot/output/build/phytium-optee-v3.2/optee_os/lib/libutils/ext/snprintk.c:614 (discriminator 2)
    2e54:	f94017e0 	ldr	x0, [sp, #40]
    2e58:	f100001f 	cmp	x0, #0x0
    2e5c:	540000a0 	b.eq	2e70 <kprintf+0x1bb8>  // b.none
/home/ubuntu/phytium-linux-buildroot/output/build/phytium-optee-v3.2/optee_os/lib/libutils/ext/snprintk.c:614 (discriminator 4)
    2e60:	f94013e1 	ldr	x1, [sp, #32]
    2e64:	f9404be0 	ldr	x0, [sp, #144]
    2e68:	eb00003f 	cmp	x1, x0
    2e6c:	540000c2 	b.cs	2e84 <kprintf+0x1bcc>  // b.hs, b.nlast
/home/ubuntu/phytium-linux-buildroot/output/build/phytium-optee-v3.2/optee_os/lib/libutils/ext/snprintk.c:614 (discriminator 5)
    2e70:	f94013e0 	ldr	x0, [sp, #32]
    2e74:	91000401 	add	x1, x0, #0x1
    2e78:	f90013e1 	str	x1, [sp, #32]
    2e7c:	52800401 	mov	w1, #0x20                  	// #32
    2e80:	39000001 	strb	w1, [x0]
/home/ubuntu/phytium-linux-buildroot/output/build/phytium-optee-v3.2/optee_os/lib/libutils/ext/snprintk.c:613
    2e84:	b9404fe0 	ldr	w0, [sp, #76]
    2e88:	51000401 	sub	w1, w0, #0x1
    2e8c:	b9004fe1 	str	w1, [sp, #76]
    2e90:	7100001f 	cmp	w0, #0x0
    2e94:	54fffd4c 	b.gt	2e3c <kprintf+0x1b84>
/home/ubuntu/phytium-linux-buildroot/output/build/phytium-optee-v3.2/optee_os/lib/libutils/ext/snprintk.c:281
    2e98:	17fff941 	b	139c <kprintf+0xe4>
/home/ubuntu/phytium-linux-buildroot/output/build/phytium-optee-v3.2/optee_os/lib/libutils/ext/snprintk.c:286
    2e9c:	d503201f 	nop
    2ea0:	14000002 	b	2ea8 <kprintf+0x1bf0>
/home/ubuntu/phytium-linux-buildroot/output/build/phytium-optee-v3.2/optee_os/lib/libutils/ext/snprintk.c:548
    2ea4:	d503201f 	nop
/home/ubuntu/phytium-linux-buildroot/output/build/phytium-optee-v3.2/optee_os/lib/libutils/ext/snprintk.c:619
    2ea8:	b94037e0 	ldr	w0, [sp, #52]
    2eac:	7100201f 	cmp	w0, #0x8
    2eb0:	540000e1 	b.ne	2ecc <kprintf+0x1c14>  // b.any
/home/ubuntu/phytium-linux-buildroot/output/build/phytium-optee-v3.2/optee_os/lib/libutils/ext/snprintk.c:619 (discriminator 1)
    2eb4:	f94017e0 	ldr	x0, [sp, #40]
    2eb8:	f100001f 	cmp	x0, #0x0
    2ebc:	54000080 	b.eq	2ecc <kprintf+0x1c14>  // b.none
/home/ubuntu/phytium-linux-buildroot/output/build/phytium-optee-v3.2/optee_os/lib/libutils/ext/snprintk.c:620
    2ec0:	f94017e0 	ldr	x0, [sp, #40]
    2ec4:	f94013e1 	ldr	x1, [sp, #32]
    2ec8:	f9000001 	str	x1, [x0]
/home/ubuntu/phytium-linux-buildroot/output/build/phytium-optee-v3.2/optee_os/lib/libutils/ext/snprintk.c:621
    2ecc:	b94057e0 	ldr	w0, [sp, #84]
    2ed0:	2a0003e1 	mov	w1, w0
/home/ubuntu/phytium-linux-buildroot/output/build/phytium-optee-v3.2/optee_os/lib/libutils/ext/snprintk.c:622
    2ed4:	d00000e0 	adrp	x0, 20000 <_DYNAMIC>
    2ed8:	f9409800 	ldr	x0, [x0, #304]
    2edc:	f94067e2 	ldr	x2, [sp, #200]
    2ee0:	f9400003 	ldr	x3, [x0]
    2ee4:	eb030042 	subs	x2, x2, x3
    2ee8:	d2800003 	mov	x3, #0x0                   	// #0
    2eec:	54000040 	b.eq	2ef4 <kprintf+0x1c3c>  // b.none
    2ef0:	97fff666 	bl	888 <__stack_chk_fail>
    2ef4:	2a0103e0 	mov	w0, w1
    2ef8:	f9400bf3 	ldr	x19, [sp, #16]
    2efc:	a8cd7bfd 	ldp	x29, x30, [sp], #208
    2f00:	d65f03c0 	ret

0000000000002f04 <memchr>:
memchr():
/home/ubuntu/phytium-linux-buildroot/output/build/phytium-optee-v3.2/optee_os/lib/libutils/isoc/newlib/memchr.c:107
    2f04:	d10103ff 	sub	sp, sp, #0x40
    2f08:	f9000fe0 	str	x0, [sp, #24]
    2f0c:	b90017e1 	str	w1, [sp, #20]
    2f10:	f90007e2 	str	x2, [sp, #8]
/home/ubuntu/phytium-linux-buildroot/output/build/phytium-optee-v3.2/optee_os/lib/libutils/isoc/newlib/memchr.c:108
    2f14:	f9400fe0 	ldr	x0, [sp, #24]
    2f18:	f90017e0 	str	x0, [sp, #40]
/home/ubuntu/phytium-linux-buildroot/output/build/phytium-optee-v3.2/optee_os/lib/libutils/isoc/newlib/memchr.c:109
    2f1c:	b94017e0 	ldr	w0, [sp, #20]
    2f20:	39008fe0 	strb	w0, [sp, #35]
/home/ubuntu/phytium-linux-buildroot/output/build/phytium-optee-v3.2/optee_os/lib/libutils/isoc/newlib/memchr.c:116
    2f24:	14000012 	b	2f6c <memchr+0x68>
/home/ubuntu/phytium-linux-buildroot/output/build/phytium-optee-v3.2/optee_os/lib/libutils/isoc/newlib/memchr.c:117
    2f28:	f94007e0 	ldr	x0, [sp, #8]
    2f2c:	d1000401 	sub	x1, x0, #0x1
    2f30:	f90007e1 	str	x1, [sp, #8]
    2f34:	f100001f 	cmp	x0, #0x0
    2f38:	54000061 	b.ne	2f44 <memchr+0x40>  // b.any
/home/ubuntu/phytium-linux-buildroot/output/build/phytium-optee-v3.2/optee_os/lib/libutils/isoc/newlib/memchr.c:118
    2f3c:	d2800000 	mov	x0, #0x0                   	// #0
    2f40:	1400005d 	b	30b4 <memchr+0x1b0>
/home/ubuntu/phytium-linux-buildroot/output/build/phytium-optee-v3.2/optee_os/lib/libutils/isoc/newlib/memchr.c:119
    2f44:	f94017e0 	ldr	x0, [sp, #40]
    2f48:	39400000 	ldrb	w0, [x0]
    2f4c:	39408fe1 	ldrb	w1, [sp, #35]
    2f50:	6b00003f 	cmp	w1, w0
    2f54:	54000061 	b.ne	2f60 <memchr+0x5c>  // b.any
/home/ubuntu/phytium-linux-buildroot/output/build/phytium-optee-v3.2/optee_os/lib/libutils/isoc/newlib/memchr.c:120
    2f58:	f94017e0 	ldr	x0, [sp, #40]
    2f5c:	14000056 	b	30b4 <memchr+0x1b0>
/home/ubuntu/phytium-linux-buildroot/output/build/phytium-optee-v3.2/optee_os/lib/libutils/isoc/newlib/memchr.c:121
    2f60:	f94017e0 	ldr	x0, [sp, #40]
    2f64:	91000400 	add	x0, x0, #0x1
    2f68:	f90017e0 	str	x0, [sp, #40]
/home/ubuntu/phytium-linux-buildroot/output/build/phytium-optee-v3.2/optee_os/lib/libutils/isoc/newlib/memchr.c:116
    2f6c:	f94017e0 	ldr	x0, [sp, #40]
    2f70:	92400800 	and	x0, x0, #0x7
    2f74:	f100001f 	cmp	x0, #0x0
    2f78:	54fffd81 	b.ne	2f28 <memchr+0x24>  // b.any
/home/ubuntu/phytium-linux-buildroot/output/build/phytium-optee-v3.2/optee_os/lib/libutils/isoc/newlib/memchr.c:124
    2f7c:	f94007e0 	ldr	x0, [sp, #8]
    2f80:	f1001c1f 	cmp	x0, #0x7
    2f84:	540008c9 	b.ls	309c <memchr+0x198>  // b.plast
/home/ubuntu/phytium-linux-buildroot/output/build/phytium-optee-v3.2/optee_os/lib/libutils/isoc/newlib/memchr.c:133
    2f88:	f94017e0 	ldr	x0, [sp, #40]
    2f8c:	f9001be0 	str	x0, [sp, #48]
/home/ubuntu/phytium-linux-buildroot/output/build/phytium-optee-v3.2/optee_os/lib/libutils/isoc/newlib/memchr.c:134
    2f90:	39408fe0 	ldrb	w0, [sp, #35]
    2f94:	53185c01 	lsl	w1, w0, #8
    2f98:	39408fe0 	ldrb	w0, [sp, #35]
    2f9c:	2a000020 	orr	w0, w1, w0
    2fa0:	93407c00 	sxtw	x0, w0
    2fa4:	f9001fe0 	str	x0, [sp, #56]
/home/ubuntu/phytium-linux-buildroot/output/build/phytium-optee-v3.2/optee_os/lib/libutils/isoc/newlib/memchr.c:135
    2fa8:	f9401fe0 	ldr	x0, [sp, #56]
    2fac:	d370bc00 	lsl	x0, x0, #16
    2fb0:	f9401fe1 	ldr	x1, [sp, #56]
    2fb4:	aa000020 	orr	x0, x1, x0
    2fb8:	f9001fe0 	str	x0, [sp, #56]
/home/ubuntu/phytium-linux-buildroot/output/build/phytium-optee-v3.2/optee_os/lib/libutils/isoc/newlib/memchr.c:136
    2fbc:	52800400 	mov	w0, #0x20                  	// #32
    2fc0:	b90027e0 	str	w0, [sp, #36]
    2fc4:	1400000a 	b	2fec <memchr+0xe8>
/home/ubuntu/phytium-linux-buildroot/output/build/phytium-optee-v3.2/optee_os/lib/libutils/isoc/newlib/memchr.c:137 (discriminator 3)
    2fc8:	b94027e0 	ldr	w0, [sp, #36]
    2fcc:	f9401fe1 	ldr	x1, [sp, #56]
    2fd0:	9ac02020 	lsl	x0, x1, x0
    2fd4:	f9401fe1 	ldr	x1, [sp, #56]
    2fd8:	aa000020 	orr	x0, x1, x0
    2fdc:	f9001fe0 	str	x0, [sp, #56]
/home/ubuntu/phytium-linux-buildroot/output/build/phytium-optee-v3.2/optee_os/lib/libutils/isoc/newlib/memchr.c:136 (discriminator 3)
    2fe0:	b94027e0 	ldr	w0, [sp, #36]
    2fe4:	0b000000 	add	w0, w0, w0
    2fe8:	b90027e0 	str	w0, [sp, #36]
/home/ubuntu/phytium-linux-buildroot/output/build/phytium-optee-v3.2/optee_os/lib/libutils/isoc/newlib/memchr.c:136 (discriminator 1)
    2fec:	b94027e0 	ldr	w0, [sp, #36]
    2ff0:	7100fc1f 	cmp	w0, #0x3f
    2ff4:	54fffea9 	b.ls	2fc8 <memchr+0xc4>  // b.plast
/home/ubuntu/phytium-linux-buildroot/output/build/phytium-optee-v3.2/optee_os/lib/libutils/isoc/newlib/memchr.c:139
    2ff8:	14000017 	b	3054 <memchr+0x150>
/home/ubuntu/phytium-linux-buildroot/output/build/phytium-optee-v3.2/optee_os/lib/libutils/isoc/newlib/memchr.c:140
    2ffc:	f9401be0 	ldr	x0, [sp, #48]
    3000:	f9400001 	ldr	x1, [x0]
    3004:	f9401fe0 	ldr	x0, [sp, #56]
    3008:	ca000021 	eor	x1, x1, x0
    300c:	b207dbe0 	mov	x0, #0xfefefefefefefefe    	// #-72340172838076674
    3010:	f29fdfe0 	movk	x0, #0xfeff
    3014:	8b000021 	add	x1, x1, x0
    3018:	f9401be0 	ldr	x0, [sp, #48]
    301c:	f9400002 	ldr	x2, [x0]
    3020:	f9401fe0 	ldr	x0, [sp, #56]
    3024:	ca000040 	eor	x0, x2, x0
    3028:	aa2003e0 	mvn	x0, x0
    302c:	8a000020 	and	x0, x1, x0
    3030:	9201c000 	and	x0, x0, #0x8080808080808080
    3034:	f100001f 	cmp	x0, #0x0
    3038:	54000161 	b.ne	3064 <memchr+0x160>  // b.any
/home/ubuntu/phytium-linux-buildroot/output/build/phytium-optee-v3.2/optee_os/lib/libutils/isoc/newlib/memchr.c:142
    303c:	f94007e0 	ldr	x0, [sp, #8]
    3040:	d1002000 	sub	x0, x0, #0x8
    3044:	f90007e0 	str	x0, [sp, #8]
/home/ubuntu/phytium-linux-buildroot/output/build/phytium-optee-v3.2/optee_os/lib/libutils/isoc/newlib/memchr.c:143
    3048:	f9401be0 	ldr	x0, [sp, #48]
    304c:	91002000 	add	x0, x0, #0x8
    3050:	f9001be0 	str	x0, [sp, #48]
/home/ubuntu/phytium-linux-buildroot/output/build/phytium-optee-v3.2/optee_os/lib/libutils/isoc/newlib/memchr.c:139
    3054:	f94007e0 	ldr	x0, [sp, #8]
    3058:	f1001c1f 	cmp	x0, #0x7
    305c:	54fffd08 	b.hi	2ffc <memchr+0xf8>  // b.pmore
    3060:	14000002 	b	3068 <memchr+0x164>
/home/ubuntu/phytium-linux-buildroot/output/build/phytium-optee-v3.2/optee_os/lib/libutils/isoc/newlib/memchr.c:141
    3064:	d503201f 	nop
/home/ubuntu/phytium-linux-buildroot/output/build/phytium-optee-v3.2/optee_os/lib/libutils/isoc/newlib/memchr.c:149
    3068:	f9401be0 	ldr	x0, [sp, #48]
    306c:	f90017e0 	str	x0, [sp, #40]
/home/ubuntu/phytium-linux-buildroot/output/build/phytium-optee-v3.2/optee_os/lib/libutils/isoc/newlib/memchr.c:153
    3070:	1400000b 	b	309c <memchr+0x198>
/home/ubuntu/phytium-linux-buildroot/output/build/phytium-optee-v3.2/optee_os/lib/libutils/isoc/newlib/memchr.c:154
    3074:	f94017e0 	ldr	x0, [sp, #40]
    3078:	39400000 	ldrb	w0, [x0]
    307c:	39408fe1 	ldrb	w1, [sp, #35]
    3080:	6b00003f 	cmp	w1, w0
    3084:	54000061 	b.ne	3090 <memchr+0x18c>  // b.any
/home/ubuntu/phytium-linux-buildroot/output/build/phytium-optee-v3.2/optee_os/lib/libutils/isoc/newlib/memchr.c:155
    3088:	f94017e0 	ldr	x0, [sp, #40]
    308c:	1400000a 	b	30b4 <memchr+0x1b0>
/home/ubuntu/phytium-linux-buildroot/output/build/phytium-optee-v3.2/optee_os/lib/libutils/isoc/newlib/memchr.c:156
    3090:	f94017e0 	ldr	x0, [sp, #40]
    3094:	91000400 	add	x0, x0, #0x1
    3098:	f90017e0 	str	x0, [sp, #40]
/home/ubuntu/phytium-linux-buildroot/output/build/phytium-optee-v3.2/optee_os/lib/libutils/isoc/newlib/memchr.c:153
    309c:	f94007e0 	ldr	x0, [sp, #8]
    30a0:	d1000401 	sub	x1, x0, #0x1
    30a4:	f90007e1 	str	x1, [sp, #8]
    30a8:	f100001f 	cmp	x0, #0x0
    30ac:	54fffe41 	b.ne	3074 <memchr+0x170>  // b.any
/home/ubuntu/phytium-linux-buildroot/output/build/phytium-optee-v3.2/optee_os/lib/libutils/isoc/newlib/memchr.c:159
    30b0:	d2800000 	mov	x0, #0x0                   	// #0
/home/ubuntu/phytium-linux-buildroot/output/build/phytium-optee-v3.2/optee_os/lib/libutils/isoc/newlib/memchr.c:160
    30b4:	910103ff 	add	sp, sp, #0x40
    30b8:	d65f03c0 	ret

00000000000030bc <strlen>:
strlen():
/home/ubuntu/phytium-linux-buildroot/output/build/phytium-optee-v3.2/optee_os/lib/libutils/isoc/newlib/strlen.c:92
    30bc:	d10083ff 	sub	sp, sp, #0x20
    30c0:	f90007e0 	str	x0, [sp, #8]
/home/ubuntu/phytium-linux-buildroot/output/build/phytium-optee-v3.2/optee_os/lib/libutils/isoc/newlib/strlen.c:93
    30c4:	f94007e0 	ldr	x0, [sp, #8]
    30c8:	f9000fe0 	str	x0, [sp, #24]
/home/ubuntu/phytium-linux-buildroot/output/build/phytium-optee-v3.2/optee_os/lib/libutils/isoc/newlib/strlen.c:99
    30cc:	1400000c 	b	30fc <strlen+0x40>
/home/ubuntu/phytium-linux-buildroot/output/build/phytium-optee-v3.2/optee_os/lib/libutils/isoc/newlib/strlen.c:100
    30d0:	f94007e0 	ldr	x0, [sp, #8]
    30d4:	39400000 	ldrb	w0, [x0]
    30d8:	7100001f 	cmp	w0, #0x0
    30dc:	540000a1 	b.ne	30f0 <strlen+0x34>  // b.any
/home/ubuntu/phytium-linux-buildroot/output/build/phytium-optee-v3.2/optee_os/lib/libutils/isoc/newlib/strlen.c:101
    30e0:	f94007e1 	ldr	x1, [sp, #8]
    30e4:	f9400fe0 	ldr	x0, [sp, #24]
    30e8:	cb000020 	sub	x0, x1, x0
    30ec:	14000027 	b	3188 <strlen+0xcc>
/home/ubuntu/phytium-linux-buildroot/output/build/phytium-optee-v3.2/optee_os/lib/libutils/isoc/newlib/strlen.c:102
    30f0:	f94007e0 	ldr	x0, [sp, #8]
    30f4:	91000400 	add	x0, x0, #0x1
    30f8:	f90007e0 	str	x0, [sp, #8]
/home/ubuntu/phytium-linux-buildroot/output/build/phytium-optee-v3.2/optee_os/lib/libutils/isoc/newlib/strlen.c:99
    30fc:	f94007e0 	ldr	x0, [sp, #8]
    3100:	92400800 	and	x0, x0, #0x7
    3104:	f100001f 	cmp	x0, #0x0
    3108:	54fffe41 	b.ne	30d0 <strlen+0x14>  // b.any
/home/ubuntu/phytium-linux-buildroot/output/build/phytium-optee-v3.2/optee_os/lib/libutils/isoc/newlib/strlen.c:107
    310c:	f94007e0 	ldr	x0, [sp, #8]
    3110:	f9000be0 	str	x0, [sp, #16]
/home/ubuntu/phytium-linux-buildroot/output/build/phytium-optee-v3.2/optee_os/lib/libutils/isoc/newlib/strlen.c:108
    3114:	14000004 	b	3124 <strlen+0x68>
/home/ubuntu/phytium-linux-buildroot/output/build/phytium-optee-v3.2/optee_os/lib/libutils/isoc/newlib/strlen.c:109
    3118:	f9400be0 	ldr	x0, [sp, #16]
    311c:	91002000 	add	x0, x0, #0x8
    3120:	f9000be0 	str	x0, [sp, #16]
/home/ubuntu/phytium-linux-buildroot/output/build/phytium-optee-v3.2/optee_os/lib/libutils/isoc/newlib/strlen.c:108
    3124:	f9400be0 	ldr	x0, [sp, #16]
    3128:	f9400001 	ldr	x1, [x0]
    312c:	b207dbe0 	mov	x0, #0xfefefefefefefefe    	// #-72340172838076674
    3130:	f29fdfe0 	movk	x0, #0xfeff
    3134:	8b000021 	add	x1, x1, x0
    3138:	f9400be0 	ldr	x0, [sp, #16]
    313c:	f9400000 	ldr	x0, [x0]
    3140:	aa2003e0 	mvn	x0, x0
    3144:	8a000020 	and	x0, x1, x0
    3148:	9201c000 	and	x0, x0, #0x8080808080808080
    314c:	f100001f 	cmp	x0, #0x0
    3150:	54fffe40 	b.eq	3118 <strlen+0x5c>  // b.none
/home/ubuntu/phytium-linux-buildroot/output/build/phytium-optee-v3.2/optee_os/lib/libutils/isoc/newlib/strlen.c:113
    3154:	f9400be0 	ldr	x0, [sp, #16]
    3158:	f90007e0 	str	x0, [sp, #8]
/home/ubuntu/phytium-linux-buildroot/output/build/phytium-optee-v3.2/optee_os/lib/libutils/isoc/newlib/strlen.c:117
    315c:	14000004 	b	316c <strlen+0xb0>
/home/ubuntu/phytium-linux-buildroot/output/build/phytium-optee-v3.2/optee_os/lib/libutils/isoc/newlib/strlen.c:118
    3160:	f94007e0 	ldr	x0, [sp, #8]
    3164:	91000400 	add	x0, x0, #0x1
    3168:	f90007e0 	str	x0, [sp, #8]
/home/ubuntu/phytium-linux-buildroot/output/build/phytium-optee-v3.2/optee_os/lib/libutils/isoc/newlib/strlen.c:117
    316c:	f94007e0 	ldr	x0, [sp, #8]
    3170:	39400000 	ldrb	w0, [x0]
    3174:	7100001f 	cmp	w0, #0x0
    3178:	54ffff41 	b.ne	3160 <strlen+0xa4>  // b.any
/home/ubuntu/phytium-linux-buildroot/output/build/phytium-optee-v3.2/optee_os/lib/libutils/isoc/newlib/strlen.c:119
    317c:	f94007e1 	ldr	x1, [sp, #8]
    3180:	f9400fe0 	ldr	x0, [sp, #24]
    3184:	cb000020 	sub	x0, x1, x0
/home/ubuntu/phytium-linux-buildroot/output/build/phytium-optee-v3.2/optee_os/lib/libutils/isoc/newlib/strlen.c:120
    3188:	910083ff 	add	sp, sp, #0x20
    318c:	d65f03c0 	ret

0000000000003190 <trace_ext_puts>:
trace_ext_puts():
/home/ubuntu/phytium-linux-buildroot/output/build/phytium-optee-v3.2/optee_os/lib/libutee/trace_ext.c:22
    3190:	a9be7bfd 	stp	x29, x30, [sp, #-32]!
    3194:	910003fd 	mov	x29, sp
    3198:	f9000fe0 	str	x0, [sp, #24]
/home/ubuntu/phytium-linux-buildroot/output/build/phytium-optee-v3.2/optee_os/lib/libutee/trace_ext.c:26
    319c:	f9400fe0 	ldr	x0, [sp, #24]
    31a0:	97ffffc7 	bl	30bc <strlen>
    31a4:	aa0003e1 	mov	x1, x0
    31a8:	f9400fe0 	ldr	x0, [sp, #24]
    31ac:	940018c4 	bl	94bc <_utee_log>
/home/ubuntu/phytium-linux-buildroot/output/build/phytium-optee-v3.2/optee_os/lib/libutee/trace_ext.c:28
    31b0:	d503201f 	nop
    31b4:	a8c27bfd 	ldp	x29, x30, [sp], #32
    31b8:	d65f03c0 	ret

00000000000031bc <trace_ext_get_thread_id>:
trace_ext_get_thread_id():
/home/ubuntu/phytium-linux-buildroot/output/build/phytium-optee-v3.2/optee_os/lib/libutee/trace_ext.c:32
    31bc:	12800000 	mov	w0, #0xffffffff            	// #-1
/home/ubuntu/phytium-linux-buildroot/output/build/phytium-optee-v3.2/optee_os/lib/libutee/trace_ext.c:33
    31c0:	d65f03c0 	ret

00000000000031c4 <printf>:
printf():
/home/ubuntu/phytium-linux-buildroot/output/build/phytium-optee-v3.2/optee_os/lib/libutee/trace_ext.c:41
    31c4:	d108c3ff 	sub	sp, sp, #0x230
    31c8:	a9007bfd 	stp	x29, x30, [sp]
    31cc:	910003fd 	mov	x29, sp
    31d0:	f9001fe0 	str	x0, [sp, #56]
    31d4:	f900ffe1 	str	x1, [sp, #504]
    31d8:	f90103e2 	str	x2, [sp, #512]
    31dc:	f90107e3 	str	x3, [sp, #520]
    31e0:	f9010be4 	str	x4, [sp, #528]
    31e4:	f9010fe5 	str	x5, [sp, #536]
    31e8:	f90113e6 	str	x6, [sp, #544]
    31ec:	f90117e7 	str	x7, [sp, #552]
    31f0:	3d805fe0 	str	q0, [sp, #368]
    31f4:	3d8063e1 	str	q1, [sp, #384]
    31f8:	3d8067e2 	str	q2, [sp, #400]
    31fc:	3d806be3 	str	q3, [sp, #416]
    3200:	3d806fe4 	str	q4, [sp, #432]
    3204:	3d8073e5 	str	q5, [sp, #448]
    3208:	3d8077e6 	str	q6, [sp, #464]
    320c:	3d807be7 	str	q7, [sp, #480]
    3210:	b00000e0 	adrp	x0, 20000 <_DYNAMIC>
    3214:	f9409800 	ldr	x0, [x0, #304]
    3218:	f9400001 	ldr	x1, [x0]
    321c:	f900b7e1 	str	x1, [sp, #360]
    3220:	d2800001 	mov	x1, #0x0                   	// #0
/home/ubuntu/phytium-linux-buildroot/output/build/phytium-optee-v3.2/optee_os/lib/libutee/trace_ext.c:46
    3224:	97fff5ba 	bl	90c <trace_get_level>
    3228:	7100001f 	cmp	w0, #0x0
    322c:	5400006c 	b.gt	3238 <printf+0x74>
/home/ubuntu/phytium-linux-buildroot/output/build/phytium-optee-v3.2/optee_os/lib/libutee/trace_ext.c:47
    3230:	52800000 	mov	w0, #0x0                   	// #0
    3234:	14000022 	b	32bc <printf+0xf8>
/home/ubuntu/phytium-linux-buildroot/output/build/phytium-optee-v3.2/optee_os/lib/libutee/trace_ext.c:49
    3238:	9108c3e0 	add	x0, sp, #0x230
    323c:	f90027e0 	str	x0, [sp, #72]
    3240:	9108c3e0 	add	x0, sp, #0x230
    3244:	f9002be0 	str	x0, [sp, #80]
    3248:	9107c3e0 	add	x0, sp, #0x1f0
    324c:	f9002fe0 	str	x0, [sp, #88]
    3250:	128006e0 	mov	w0, #0xffffffc8            	// #-56
    3254:	b90063e0 	str	w0, [sp, #96]
    3258:	12800fe0 	mov	w0, #0xffffff80            	// #-128
    325c:	b90067e0 	str	w0, [sp, #100]
/home/ubuntu/phytium-linux-buildroot/output/build/phytium-optee-v3.2/optee_os/lib/libutee/trace_ext.c:50
    3260:	f94027e0 	ldr	x0, [sp, #72]
    3264:	f9000be0 	str	x0, [sp, #16]
    3268:	f9402be0 	ldr	x0, [sp, #80]
    326c:	f9000fe0 	str	x0, [sp, #24]
    3270:	f9402fe0 	ldr	x0, [sp, #88]
    3274:	f90013e0 	str	x0, [sp, #32]
    3278:	f94033e0 	ldr	x0, [sp, #96]
    327c:	f90017e0 	str	x0, [sp, #40]
    3280:	910043e1 	add	x1, sp, #0x10
    3284:	9101a3e0 	add	x0, sp, #0x68
    3288:	aa0103e3 	mov	x3, x1
    328c:	f9401fe2 	ldr	x2, [sp, #56]
    3290:	d2802001 	mov	x1, #0x100                 	// #256
    3294:	9400595c 	bl	19804 <vsnprintf>
    3298:	b90047e0 	str	w0, [sp, #68]
/home/ubuntu/phytium-linux-buildroot/output/build/phytium-optee-v3.2/optee_os/lib/libutee/trace_ext.c:53
    329c:	b94047e0 	ldr	w0, [sp, #68]
    32a0:	7100001f 	cmp	w0, #0x0
    32a4:	5400006a 	b.ge	32b0 <printf+0xec>  // b.tcont
/home/ubuntu/phytium-linux-buildroot/output/build/phytium-optee-v3.2/optee_os/lib/libutee/trace_ext.c:54
    32a8:	b94047e0 	ldr	w0, [sp, #68]
    32ac:	14000004 	b	32bc <printf+0xf8>
/home/ubuntu/phytium-linux-buildroot/output/build/phytium-optee-v3.2/optee_os/lib/libutee/trace_ext.c:56
    32b0:	9101a3e0 	add	x0, sp, #0x68
    32b4:	97ffffb7 	bl	3190 <trace_ext_puts>
/home/ubuntu/phytium-linux-buildroot/output/build/phytium-optee-v3.2/optee_os/lib/libutee/trace_ext.c:58
    32b8:	b94047e0 	ldr	w0, [sp, #68]
/home/ubuntu/phytium-linux-buildroot/output/build/phytium-optee-v3.2/optee_os/lib/libutee/trace_ext.c:59 (discriminator 1)
    32bc:	2a0003e1 	mov	w1, w0
    32c0:	b00000e0 	adrp	x0, 20000 <_DYNAMIC>
    32c4:	f9409800 	ldr	x0, [x0, #304]
    32c8:	f940b7e2 	ldr	x2, [sp, #360]
    32cc:	f9400003 	ldr	x3, [x0]
    32d0:	eb030042 	subs	x2, x2, x3
    32d4:	d2800003 	mov	x3, #0x0                   	// #0
    32d8:	54000040 	b.eq	32e0 <printf+0x11c>  // b.none
/home/ubuntu/phytium-linux-buildroot/output/build/phytium-optee-v3.2/optee_os/lib/libutee/trace_ext.c:59
    32dc:	97fff56b 	bl	888 <__stack_chk_fail>
    32e0:	2a0103e0 	mov	w0, w1
    32e4:	a9407bfd 	ldp	x29, x30, [sp]
    32e8:	9108c3ff 	add	sp, sp, #0x230
    32ec:	d65f03c0 	ret

00000000000032f0 <puts>:
puts():
/home/ubuntu/phytium-linux-buildroot/output/build/phytium-optee-v3.2/optee_os/lib/libutee/trace_ext.c:62
    32f0:	a9be7bfd 	stp	x29, x30, [sp, #-32]!
    32f4:	910003fd 	mov	x29, sp
    32f8:	f9000fe0 	str	x0, [sp, #24]
/home/ubuntu/phytium-linux-buildroot/output/build/phytium-optee-v3.2/optee_os/lib/libutee/trace_ext.c:63
    32fc:	97fff584 	bl	90c <trace_get_level>
    3300:	7100001f 	cmp	w0, #0x0
    3304:	540000cd 	b.le	331c <puts+0x2c>
/home/ubuntu/phytium-linux-buildroot/output/build/phytium-optee-v3.2/optee_os/lib/libutee/trace_ext.c:64
    3308:	f9400fe0 	ldr	x0, [sp, #24]
    330c:	97ffffa1 	bl	3190 <trace_ext_puts>
/home/ubuntu/phytium-linux-buildroot/output/build/phytium-optee-v3.2/optee_os/lib/libutee/trace_ext.c:65
    3310:	d00000c0 	adrp	x0, 1d000 <__text_end+0x2c18>
    3314:	91332000 	add	x0, x0, #0xcc8
    3318:	97ffff9e 	bl	3190 <trace_ext_puts>
/home/ubuntu/phytium-linux-buildroot/output/build/phytium-optee-v3.2/optee_os/lib/libutee/trace_ext.c:67
    331c:	52800020 	mov	w0, #0x1                   	// #1
/home/ubuntu/phytium-linux-buildroot/output/build/phytium-optee-v3.2/optee_os/lib/libutee/trace_ext.c:68
    3320:	a8c27bfd 	ldp	x29, x30, [sp], #32
    3324:	d65f03c0 	ret

0000000000003328 <putchar>:
putchar():
/home/ubuntu/phytium-linux-buildroot/output/build/phytium-optee-v3.2/optee_os/lib/libutee/trace_ext.c:71
    3328:	a9bd7bfd 	stp	x29, x30, [sp, #-48]!
    332c:	910003fd 	mov	x29, sp
    3330:	b9001fe0 	str	w0, [sp, #28]
    3334:	b00000e0 	adrp	x0, 20000 <_DYNAMIC>
    3338:	f9409800 	ldr	x0, [x0, #304]
    333c:	f9400001 	ldr	x1, [x0]
    3340:	f90017e1 	str	x1, [sp, #40]
    3344:	d2800001 	mov	x1, #0x0                   	// #0
/home/ubuntu/phytium-linux-buildroot/output/build/phytium-optee-v3.2/optee_os/lib/libutee/trace_ext.c:72
    3348:	b9401fe0 	ldr	w0, [sp, #28]
    334c:	12001c00 	and	w0, w0, #0xff
    3350:	390083e0 	strb	w0, [sp, #32]
    3354:	390087ff 	strb	wzr, [sp, #33]
/home/ubuntu/phytium-linux-buildroot/output/build/phytium-optee-v3.2/optee_os/lib/libutee/trace_ext.c:74
    3358:	97fff56d 	bl	90c <trace_get_level>
    335c:	7100001f 	cmp	w0, #0x0
    3360:	5400006d 	b.le	336c <putchar+0x44>
/home/ubuntu/phytium-linux-buildroot/output/build/phytium-optee-v3.2/optee_os/lib/libutee/trace_ext.c:75
    3364:	910083e0 	add	x0, sp, #0x20
    3368:	97ffff8a 	bl	3190 <trace_ext_puts>
/home/ubuntu/phytium-linux-buildroot/output/build/phytium-optee-v3.2/optee_os/lib/libutee/trace_ext.c:81
    336c:	b9401fe0 	ldr	w0, [sp, #28]
    3370:	12001c00 	and	w0, w0, #0xff
    3374:	2a0003e1 	mov	w1, w0
